	.text
	.syntax unified
	.eabi_attribute	67, "2.09"
	.eabi_attribute	6, 12
	.eabi_attribute	7, 77
	.eabi_attribute	8, 0
	.eabi_attribute	9, 1
	.eabi_attribute	34, 0
	.eabi_attribute	17, 1
	.eabi_attribute	20, 1
	.eabi_attribute	21, 1
	.eabi_attribute	23, 3
	.eabi_attribute	24, 1
	.eabi_attribute	25, 1
	.eabi_attribute	38, 1
	.eabi_attribute	14, 0
	.file	"lib.794f6d4ed1887c90-cgu.0"
	.section	".text._ZN44_$LT$$RF$T$u20$as$u20$core..fmt..Display$GT$3fmt17h0c4e73f02583b3a5E","ax",%progbits
	.globl	_ZN44_$LT$$RF$T$u20$as$u20$core..fmt..Display$GT$3fmt17h0c4e73f02583b3a5E
	.p2align	1
	.type	_ZN44_$LT$$RF$T$u20$as$u20$core..fmt..Display$GT$3fmt17h0c4e73f02583b3a5E,%function
	.code	16
	.thumb_func
_ZN44_$LT$$RF$T$u20$as$u20$core..fmt..Display$GT$3fmt17h0c4e73f02583b3a5E:
	.fnstart
	.save	{r7, lr}
	push	{r7, lr}
	.setfp	r7, sp
	add	r7, sp, #0
	ldr	r0, [r0]
	bl	_ZN67_$LT$lib..newspeed..DisplayArrErr$u20$as$u20$core..fmt..Display$GT$3fmt17hbe764960f20b56e5E
	pop	{r7, pc}
.Lfunc_end0:
	.size	_ZN44_$LT$$RF$T$u20$as$u20$core..fmt..Display$GT$3fmt17h0c4e73f02583b3a5E, .Lfunc_end0-_ZN44_$LT$$RF$T$u20$as$u20$core..fmt..Display$GT$3fmt17h0c4e73f02583b3a5E
	.cantunwind
	.fnend

	.section	".text._ZN44_$LT$$RF$T$u20$as$u20$core..fmt..Display$GT$3fmt17h459c4a253aae4de1E","ax",%progbits
	.globl	_ZN44_$LT$$RF$T$u20$as$u20$core..fmt..Display$GT$3fmt17h459c4a253aae4de1E
	.p2align	1
	.type	_ZN44_$LT$$RF$T$u20$as$u20$core..fmt..Display$GT$3fmt17h459c4a253aae4de1E,%function
	.code	16
	.thumb_func
_ZN44_$LT$$RF$T$u20$as$u20$core..fmt..Display$GT$3fmt17h459c4a253aae4de1E:
	.fnstart
	.save	{r7, lr}
	push	{r7, lr}
	.setfp	r7, sp
	add	r7, sp, #0
	ldr	r0, [r0]
	bl	_ZN4core3fmt3num3imp54_$LT$impl$u20$core..fmt..Display$u20$for$u20$usize$GT$3fmt17h2e3b3752920e2c01E
	pop	{r7, pc}
.Lfunc_end1:
	.size	_ZN44_$LT$$RF$T$u20$as$u20$core..fmt..Display$GT$3fmt17h459c4a253aae4de1E, .Lfunc_end1-_ZN44_$LT$$RF$T$u20$as$u20$core..fmt..Display$GT$3fmt17h459c4a253aae4de1E
	.cantunwind
	.fnend

	.section	".text._ZN44_$LT$$RF$T$u20$as$u20$core..fmt..Display$GT$3fmt17h850a63915c02ea75E","ax",%progbits
	.globl	_ZN44_$LT$$RF$T$u20$as$u20$core..fmt..Display$GT$3fmt17h850a63915c02ea75E
	.p2align	1
	.type	_ZN44_$LT$$RF$T$u20$as$u20$core..fmt..Display$GT$3fmt17h850a63915c02ea75E,%function
	.code	16
	.thumb_func
_ZN44_$LT$$RF$T$u20$as$u20$core..fmt..Display$GT$3fmt17h850a63915c02ea75E:
	.fnstart
	.save	{r7, lr}
	push	{r7, lr}
	.setfp	r7, sp
	add	r7, sp, #0
	mov	r2, r1
	ldr	r3, [r0]
	ldr	r1, [r0, #4]
	mov	r0, r3
	bl	_ZN42_$LT$str$u20$as$u20$core..fmt..Display$GT$3fmt17hd1485b6e3bbe8383E
	pop	{r7, pc}
.Lfunc_end2:
	.size	_ZN44_$LT$$RF$T$u20$as$u20$core..fmt..Display$GT$3fmt17h850a63915c02ea75E, .Lfunc_end2-_ZN44_$LT$$RF$T$u20$as$u20$core..fmt..Display$GT$3fmt17h850a63915c02ea75E
	.cantunwind
	.fnend

	.section	.text._ZN4core4iter8adapters3zip3zip17h6f8637f56257f1a8E,"ax",%progbits
	.globl	_ZN4core4iter8adapters3zip3zip17h6f8637f56257f1a8E
	.p2align	1
	.type	_ZN4core4iter8adapters3zip3zip17h6f8637f56257f1a8E,%function
	.code	16
	.thumb_func
_ZN4core4iter8adapters3zip3zip17h6f8637f56257f1a8E:
	.fnstart
	.save	{r4, r5, r6, r7, lr}
	push	{r4, r5, r6, r7, lr}
	.setfp	r7, sp, #12
	add	r7, sp, #12
	.pad	#4
	sub	sp, #4
	mov	r6, r2
	mov	r4, r0
	movs	r0, #1
	lsls	r5, r0, #9
	mov	r0, r4
	mov	r2, r5
	bl	__aeabi_memcpy8
	movs	r0, #65
	lsls	r0, r0, #3
	adds	r0, r4, r0
	mov	r1, r6
	mov	r2, r5
	bl	__aeabi_memcpy8
	movs	r0, #129
	lsls	r0, r0, #3
	movs	r1, #0
	str	r1, [r4, r0]
	str	r1, [r4, r5]
	adds	r0, r4, r0
	movs	r2, #64
	str	r2, [r0, #4]
	str	r1, [r0, #8]
	str	r1, [r0, #12]
	str	r1, [r0, #16]
	adds	r0, r4, r5
	str	r2, [r0, #4]
	add	sp, #4
	pop	{r4, r5, r6, r7, pc}
.Lfunc_end3:
	.size	_ZN4core4iter8adapters3zip3zip17h6f8637f56257f1a8E, .Lfunc_end3-_ZN4core4iter8adapters3zip3zip17h6f8637f56257f1a8E
	.cantunwind
	.fnend

	.section	.text._ZN4core4iter8adapters3zip3zip17hdda4a54afcee9662E,"ax",%progbits
	.globl	_ZN4core4iter8adapters3zip3zip17hdda4a54afcee9662E
	.p2align	1
	.type	_ZN4core4iter8adapters3zip3zip17hdda4a54afcee9662E,%function
	.code	16
	.thumb_func
_ZN4core4iter8adapters3zip3zip17hdda4a54afcee9662E:
	.fnstart
	.save	{r4, r5, r6, r7, lr}
	push	{r4, r5, r6, r7, lr}
	.setfp	r7, sp, #12
	add	r7, sp, #12
	.pad	#4
	sub	sp, #4
	mov	r4, r1
	mov	r5, r0
	movs	r0, #33
	lsls	r6, r0, #5
	mov	r0, r5
	mov	r1, r2
	mov	r2, r6
	bl	__aeabi_memcpy8
	str	r4, [r5, r6]
	adds	r0, r5, r6
	movs	r1, #0
	str	r1, [r0, #4]
	str	r1, [r0, #8]
	str	r1, [r0, #12]
	add	sp, #4
	pop	{r4, r5, r6, r7, pc}
.Lfunc_end4:
	.size	_ZN4core4iter8adapters3zip3zip17hdda4a54afcee9662E, .Lfunc_end4-_ZN4core4iter8adapters3zip3zip17hdda4a54afcee9662E
	.cantunwind
	.fnend

	.section	".text._ZN82_$LT$core..array..iter..IntoIter$LT$T$C$_$GT$$u20$as$u20$core..ops..drop..Drop$GT$4drop17h4fa64c7625619b82E","ax",%progbits
	.globl	_ZN82_$LT$core..array..iter..IntoIter$LT$T$C$_$GT$$u20$as$u20$core..ops..drop..Drop$GT$4drop17h4fa64c7625619b82E
	.p2align	1
	.type	_ZN82_$LT$core..array..iter..IntoIter$LT$T$C$_$GT$$u20$as$u20$core..ops..drop..Drop$GT$4drop17h4fa64c7625619b82E,%function
	.code	16
	.thumb_func
_ZN82_$LT$core..array..iter..IntoIter$LT$T$C$_$GT$$u20$as$u20$core..ops..drop..Drop$GT$4drop17h4fa64c7625619b82E:
	.fnstart
	bx	lr
.Lfunc_end5:
	.size	_ZN82_$LT$core..array..iter..IntoIter$LT$T$C$_$GT$$u20$as$u20$core..ops..drop..Drop$GT$4drop17h4fa64c7625619b82E, .Lfunc_end5-_ZN82_$LT$core..array..iter..IntoIter$LT$T$C$_$GT$$u20$as$u20$core..ops..drop..Drop$GT$4drop17h4fa64c7625619b82E
	.cantunwind
	.fnend

	.section	".text._ZN99_$LT$core..array..iter..IntoIter$LT$T$C$_$GT$$u20$as$u20$core..iter..traits..iterator..Iterator$GT$4next17h669b9c477441cc73E","ax",%progbits
	.globl	_ZN99_$LT$core..array..iter..IntoIter$LT$T$C$_$GT$$u20$as$u20$core..iter..traits..iterator..Iterator$GT$4next17h669b9c477441cc73E
	.p2align	1
	.type	_ZN99_$LT$core..array..iter..IntoIter$LT$T$C$_$GT$$u20$as$u20$core..iter..traits..iterator..Iterator$GT$4next17h669b9c477441cc73E,%function
	.code	16
	.thumb_func
_ZN99_$LT$core..array..iter..IntoIter$LT$T$C$_$GT$$u20$as$u20$core..iter..traits..iterator..Iterator$GT$4next17h669b9c477441cc73E:
	.fnstart
	.save	{r4, r5, r7, lr}
	push	{r4, r5, r7, lr}
	.setfp	r7, sp, #8
	add	r7, sp, #8
	mov	r3, r0
	movs	r0, #1
	lsls	r1, r0, #9
	ldr	r2, [r3, r1]
	adds	r4, r3, r1
	ldr	r5, [r4, #4]
	movs	r1, #0
	cmp	r5, r2
	bne	.LBB6_2
	mov	r0, r1
	pop	{r4, r5, r7, pc}
.LBB6_2:
	adds	r5, r2, #1
	str	r5, [r4]
	lsls	r4, r2, #3
	ldr	r2, [r3, r4]
	adds	r3, r3, r4
	ldr	r3, [r3, #4]
	pop	{r4, r5, r7, pc}
.Lfunc_end6:
	.size	_ZN99_$LT$core..array..iter..IntoIter$LT$T$C$_$GT$$u20$as$u20$core..iter..traits..iterator..Iterator$GT$4next17h669b9c477441cc73E, .Lfunc_end6-_ZN99_$LT$core..array..iter..IntoIter$LT$T$C$_$GT$$u20$as$u20$core..iter..traits..iterator..Iterator$GT$4next17h669b9c477441cc73E
	.cantunwind
	.fnend

	.section	".text._ZN67_$LT$lib..newspeed..DisplayArrErr$u20$as$u20$core..fmt..Display$GT$3fmt17hbe764960f20b56e5E","ax",%progbits
	.globl	_ZN67_$LT$lib..newspeed..DisplayArrErr$u20$as$u20$core..fmt..Display$GT$3fmt17hbe764960f20b56e5E
	.p2align	2
	.type	_ZN67_$LT$lib..newspeed..DisplayArrErr$u20$as$u20$core..fmt..Display$GT$3fmt17hbe764960f20b56e5E,%function
	.code	16
	.thumb_func
_ZN67_$LT$lib..newspeed..DisplayArrErr$u20$as$u20$core..fmt..Display$GT$3fmt17hbe764960f20b56e5E:
	.fnstart
	.save	{r7, lr}
	push	{r7, lr}
	.setfp	r7, sp
	add	r7, sp, #0
	.pad	#64
	sub	sp, #64
	mov	r2, r1
	mov	r3, r0
	ldm	r3!, {r1}
	str	r3, [sp]
	adds	r0, #8
	str	r0, [sp, #4]
	movs	r0, #3
	cmp	r1, #0
	mov	r3, r0
	beq	.LBB7_2
	movs	r3, #6
.LBB7_2:
	str	r3, [sp, #12]
	cmp	r1, #0
	beq	.LBB7_4
	ldr	r1, .LCPI7_1
	b	.LBB7_5
.LBB7_4:
	ldr	r1, .LCPI7_0
.LBB7_5:
	str	r1, [sp, #8]
	movs	r1, #0
	str	r1, [sp, #32]
	str	r0, [sp, #20]
	ldr	r1, .LCPI7_2
	str	r1, [sp, #16]
	str	r0, [sp, #28]
	add	r0, sp, #40
	str	r0, [sp, #24]
	ldr	r0, .LCPI7_3
	str	r0, [sp, #60]
	add	r1, sp, #4
	str	r1, [sp, #56]
	str	r0, [sp, #52]
	mov	r0, sp
	str	r0, [sp, #48]
	ldr	r0, .LCPI7_4
	str	r0, [sp, #44]
	add	r0, sp, #8
	str	r0, [sp, #40]
	add	r1, sp, #16
	mov	r0, r2
	bl	_ZN4core3fmt9Formatter9write_fmt17h9c22fb615787d62aE
	add	sp, #64
	pop	{r7, pc}
	.p2align	2
.LCPI7_0:
	.long	.L__unnamed_1
.LCPI7_1:
	.long	.L__unnamed_2
.LCPI7_2:
	.long	.L__unnamed_3
.LCPI7_3:
	.long	_ZN44_$LT$$RF$T$u20$as$u20$core..fmt..Display$GT$3fmt17h459c4a253aae4de1E
.LCPI7_4:
	.long	_ZN44_$LT$$RF$T$u20$as$u20$core..fmt..Display$GT$3fmt17h850a63915c02ea75E
.Lfunc_end7:
	.size	_ZN67_$LT$lib..newspeed..DisplayArrErr$u20$as$u20$core..fmt..Display$GT$3fmt17hbe764960f20b56e5E, .Lfunc_end7-_ZN67_$LT$lib..newspeed..DisplayArrErr$u20$as$u20$core..fmt..Display$GT$3fmt17hbe764960f20b56e5E
	.cantunwind
	.fnend

	.section	".text._ZN65_$LT$lib..newspeed..DisplayArrErr$u20$as$u20$core..fmt..Debug$GT$3fmt17h6c89c85a43028ed4E","ax",%progbits
	.globl	_ZN65_$LT$lib..newspeed..DisplayArrErr$u20$as$u20$core..fmt..Debug$GT$3fmt17h6c89c85a43028ed4E
	.p2align	2
	.type	_ZN65_$LT$lib..newspeed..DisplayArrErr$u20$as$u20$core..fmt..Debug$GT$3fmt17h6c89c85a43028ed4E,%function
	.code	16
	.thumb_func
_ZN65_$LT$lib..newspeed..DisplayArrErr$u20$as$u20$core..fmt..Debug$GT$3fmt17h6c89c85a43028ed4E:
	.fnstart
	.save	{r7, lr}
	push	{r7, lr}
	.setfp	r7, sp
	add	r7, sp, #0
	.pad	#40
	sub	sp, #40
	mov	r2, r1
	str	r0, [sp, #4]
	movs	r0, #0
	str	r0, [sp, #24]
	movs	r0, #1
	str	r0, [sp, #12]
	ldr	r1, .LCPI8_0
	str	r1, [sp, #8]
	str	r0, [sp, #20]
	add	r0, sp, #32
	str	r0, [sp, #16]
	ldr	r0, .LCPI8_1
	str	r0, [sp, #36]
	add	r0, sp, #4
	str	r0, [sp, #32]
	add	r1, sp, #8
	mov	r0, r2
	bl	_ZN4core3fmt9Formatter9write_fmt17h9c22fb615787d62aE
	add	sp, #40
	pop	{r7, pc}
	.p2align	2
.LCPI8_0:
	.long	.L__unnamed_4
.LCPI8_1:
	.long	_ZN44_$LT$$RF$T$u20$as$u20$core..fmt..Display$GT$3fmt17h0c4e73f02583b3a5E
.Lfunc_end8:
	.size	_ZN65_$LT$lib..newspeed..DisplayArrErr$u20$as$u20$core..fmt..Debug$GT$3fmt17h6c89c85a43028ed4E, .Lfunc_end8-_ZN65_$LT$lib..newspeed..DisplayArrErr$u20$as$u20$core..fmt..Debug$GT$3fmt17h6c89c85a43028ed4E
	.cantunwind
	.fnend

	.section	.text._ZN3lib8newspeed10DisplayArr5splat10simd_splat17h4e4eed90a6b39476E,"ax",%progbits
	.globl	_ZN3lib8newspeed10DisplayArr5splat10simd_splat17h4e4eed90a6b39476E
	.p2align	1
	.type	_ZN3lib8newspeed10DisplayArr5splat10simd_splat17h4e4eed90a6b39476E,%function
	.code	16
	.thumb_func
_ZN3lib8newspeed10DisplayArr5splat10simd_splat17h4e4eed90a6b39476E:
	.fnstart
	.save	{r4, r5, r6, r7, lr}
	push	{r4, r5, r6, r7, lr}
	.setfp	r7, sp, #12
	add	r7, sp, #12
	.pad	#20
	sub	sp, #20
	mov	r5, r0
	movs	r0, #128
	str	r2, [r5, r0]
	movs	r0, #7
	lsls	r0, r0, #7
	str	r0, [sp]
	ldr	r4, [r7, #8]
	str	r4, [r5, r0]
	movs	r1, #3
	lsls	r0, r1, #8
	str	r0, [sp, #4]
	str	r4, [r5, r0]
	movs	r6, #5
	lsls	r0, r6, #7
	str	r0, [sp, #8]
	str	r4, [r5, r0]
	movs	r6, #1
	lsls	r0, r6, #9
	str	r0, [sp, #12]
	str	r4, [r5, r0]
	lsls	r1, r1, #7
	str	r1, [sp, #16]
	str	r2, [r5, r1]
	lsls	r6, r6, #8
	str	r2, [r5, r6]
	str	r2, [r5, #96]
	str	r3, [r5, #100]
	str	r2, [r5, #104]
	str	r3, [r5, #108]
	str	r2, [r5, #112]
	str	r3, [r5, #116]
	str	r2, [r5, #120]
	str	r3, [r5, #124]
	str	r2, [r5, #64]
	str	r3, [r5, #68]
	str	r2, [r5, #72]
	str	r3, [r5, #76]
	str	r2, [r5, #80]
	str	r3, [r5, #84]
	str	r2, [r5, #88]
	str	r3, [r5, #92]
	str	r2, [r5, #32]
	str	r3, [r5, #36]
	str	r2, [r5, #40]
	str	r3, [r5, #44]
	str	r2, [r5, #48]
	str	r3, [r5, #52]
	str	r2, [r5, #56]
	str	r3, [r5, #60]
	stm	r5!, {r2, r3}
	str	r2, [r5]
	str	r3, [r5, #4]
	str	r2, [r5, #8]
	str	r3, [r5, #12]
	str	r2, [r5, #16]
	str	r3, [r5, #20]
	subs	r5, #8
	mov	r1, r5
	adds	r1, #128
	str	r3, [r1, #100]
	str	r2, [r1, #104]
	str	r3, [r1, #108]
	str	r2, [r1, #112]
	str	r3, [r1, #116]
	str	r2, [r1, #120]
	str	r3, [r1, #124]
	str	r3, [r1, #68]
	str	r2, [r1, #72]
	str	r3, [r1, #76]
	str	r2, [r1, #80]
	str	r3, [r1, #84]
	str	r2, [r1, #88]
	str	r3, [r1, #92]
	str	r2, [r1, #96]
	str	r3, [r1, #36]
	str	r2, [r1, #40]
	str	r3, [r1, #44]
	str	r2, [r1, #48]
	str	r3, [r1, #52]
	str	r2, [r1, #56]
	str	r3, [r1, #60]
	str	r2, [r1, #64]
	str	r3, [r1, #4]
	str	r2, [r1, #8]
	str	r3, [r1, #12]
	str	r2, [r1, #16]
	str	r3, [r1, #20]
	str	r2, [r1, #24]
	str	r3, [r1, #28]
	str	r2, [r1, #32]
	ldr	r0, [sp]
	adds	r1, r5, r0
	ldr	r0, [r7, #12]
	str	r0, [r1, #100]
	str	r4, [r1, #104]
	str	r0, [r1, #108]
	str	r4, [r1, #112]
	str	r0, [r1, #116]
	str	r4, [r1, #120]
	str	r0, [r1, #124]
	str	r0, [r1, #68]
	str	r4, [r1, #72]
	str	r0, [r1, #76]
	str	r4, [r1, #80]
	str	r0, [r1, #84]
	str	r4, [r1, #88]
	str	r0, [r1, #92]
	str	r4, [r1, #96]
	str	r0, [r1, #36]
	str	r4, [r1, #40]
	str	r0, [r1, #44]
	str	r4, [r1, #48]
	str	r0, [r1, #52]
	str	r4, [r1, #56]
	str	r0, [r1, #60]
	str	r4, [r1, #64]
	str	r0, [r1, #4]
	str	r4, [r1, #8]
	str	r0, [r1, #12]
	str	r4, [r1, #16]
	str	r0, [r1, #20]
	str	r4, [r1, #24]
	str	r0, [r1, #28]
	str	r4, [r1, #32]
	ldr	r1, [sp, #4]
	adds	r1, r5, r1
	str	r0, [r1, #100]
	str	r4, [r1, #104]
	str	r0, [r1, #108]
	str	r4, [r1, #112]
	str	r0, [r1, #116]
	str	r4, [r1, #120]
	str	r0, [r1, #124]
	str	r0, [r1, #68]
	str	r4, [r1, #72]
	str	r0, [r1, #76]
	str	r4, [r1, #80]
	str	r0, [r1, #84]
	str	r4, [r1, #88]
	str	r0, [r1, #92]
	str	r4, [r1, #96]
	str	r0, [r1, #36]
	str	r4, [r1, #40]
	str	r0, [r1, #44]
	str	r4, [r1, #48]
	str	r0, [r1, #52]
	str	r4, [r1, #56]
	str	r0, [r1, #60]
	str	r4, [r1, #64]
	str	r0, [r1, #4]
	str	r4, [r1, #8]
	str	r0, [r1, #12]
	str	r4, [r1, #16]
	str	r0, [r1, #20]
	str	r4, [r1, #24]
	str	r0, [r1, #28]
	str	r4, [r1, #32]
	ldr	r1, [sp, #8]
	adds	r1, r5, r1
	str	r0, [r1, #100]
	str	r4, [r1, #104]
	str	r0, [r1, #108]
	str	r4, [r1, #112]
	str	r0, [r1, #116]
	str	r4, [r1, #120]
	str	r0, [r1, #124]
	str	r0, [r1, #68]
	str	r4, [r1, #72]
	str	r0, [r1, #76]
	str	r4, [r1, #80]
	str	r0, [r1, #84]
	str	r4, [r1, #88]
	str	r0, [r1, #92]
	str	r4, [r1, #96]
	str	r0, [r1, #36]
	str	r4, [r1, #40]
	str	r0, [r1, #44]
	str	r4, [r1, #48]
	str	r0, [r1, #52]
	str	r4, [r1, #56]
	str	r0, [r1, #60]
	str	r4, [r1, #64]
	str	r0, [r1, #4]
	str	r4, [r1, #8]
	str	r0, [r1, #12]
	str	r4, [r1, #16]
	str	r0, [r1, #20]
	str	r4, [r1, #24]
	str	r0, [r1, #28]
	str	r4, [r1, #32]
	ldr	r1, [sp, #12]
	adds	r1, r5, r1
	str	r0, [r1, #100]
	str	r4, [r1, #104]
	str	r0, [r1, #108]
	str	r4, [r1, #112]
	str	r0, [r1, #116]
	str	r4, [r1, #120]
	str	r0, [r1, #124]
	str	r0, [r1, #68]
	str	r4, [r1, #72]
	str	r0, [r1, #76]
	str	r4, [r1, #80]
	str	r0, [r1, #84]
	str	r4, [r1, #88]
	str	r0, [r1, #92]
	str	r4, [r1, #96]
	str	r0, [r1, #36]
	str	r4, [r1, #40]
	str	r0, [r1, #44]
	str	r4, [r1, #48]
	str	r0, [r1, #52]
	str	r4, [r1, #56]
	str	r0, [r1, #60]
	str	r4, [r1, #64]
	str	r0, [r1, #4]
	str	r4, [r1, #8]
	str	r0, [r1, #12]
	str	r4, [r1, #16]
	str	r0, [r1, #20]
	str	r4, [r1, #24]
	str	r0, [r1, #28]
	str	r4, [r1, #32]
	ldr	r0, [sp, #16]
	adds	r0, r5, r0
	str	r3, [r0, #100]
	str	r2, [r0, #104]
	str	r3, [r0, #108]
	str	r2, [r0, #112]
	str	r3, [r0, #116]
	str	r2, [r0, #120]
	str	r3, [r0, #124]
	str	r3, [r0, #68]
	str	r2, [r0, #72]
	str	r3, [r0, #76]
	str	r2, [r0, #80]
	str	r3, [r0, #84]
	str	r2, [r0, #88]
	str	r3, [r0, #92]
	str	r2, [r0, #96]
	str	r3, [r0, #36]
	str	r2, [r0, #40]
	str	r3, [r0, #44]
	str	r2, [r0, #48]
	str	r3, [r0, #52]
	str	r2, [r0, #56]
	str	r3, [r0, #60]
	str	r2, [r0, #64]
	str	r3, [r0, #4]
	str	r2, [r0, #8]
	str	r3, [r0, #12]
	str	r2, [r0, #16]
	str	r3, [r0, #20]
	str	r2, [r0, #24]
	str	r3, [r0, #28]
	str	r2, [r0, #32]
	adds	r0, r5, r6
	str	r3, [r0, #100]
	str	r2, [r0, #104]
	str	r3, [r0, #108]
	str	r2, [r0, #112]
	str	r3, [r0, #116]
	str	r2, [r0, #120]
	str	r3, [r0, #124]
	str	r3, [r0, #68]
	str	r2, [r0, #72]
	str	r3, [r0, #76]
	str	r2, [r0, #80]
	str	r3, [r0, #84]
	str	r2, [r0, #88]
	str	r3, [r0, #92]
	str	r2, [r0, #96]
	str	r3, [r0, #36]
	str	r2, [r0, #40]
	str	r3, [r0, #44]
	str	r2, [r0, #48]
	str	r3, [r0, #52]
	str	r2, [r0, #56]
	str	r3, [r0, #60]
	str	r2, [r0, #64]
	str	r3, [r0, #4]
	str	r2, [r0, #8]
	str	r3, [r0, #12]
	str	r2, [r0, #16]
	str	r3, [r0, #20]
	str	r2, [r0, #24]
	str	r3, [r0, #28]
	str	r2, [r0, #32]
	add	sp, #20
	pop	{r4, r5, r6, r7, pc}
.Lfunc_end9:
	.size	_ZN3lib8newspeed10DisplayArr5splat10simd_splat17h4e4eed90a6b39476E, .Lfunc_end9-_ZN3lib8newspeed10DisplayArr5splat10simd_splat17h4e4eed90a6b39476E
	.cantunwind
	.fnend

	.section	.text._ZN3lib8newspeed10DisplayArr3new17hc34b03b2bf8e1198E,"ax",%progbits
	.globl	_ZN3lib8newspeed10DisplayArr3new17hc34b03b2bf8e1198E
	.p2align	1
	.type	_ZN3lib8newspeed10DisplayArr3new17hc34b03b2bf8e1198E,%function
	.code	16
	.thumb_func
_ZN3lib8newspeed10DisplayArr3new17hc34b03b2bf8e1198E:
	.fnstart
	.save	{r7, lr}
	push	{r7, lr}
	.setfp	r7, sp
	add	r7, sp, #0
	movs	r1, #1
	lsls	r1, r1, #10
	bl	__aeabi_memclr8
	pop	{r7, pc}
.Lfunc_end10:
	.size	_ZN3lib8newspeed10DisplayArr3new17hc34b03b2bf8e1198E, .Lfunc_end10-_ZN3lib8newspeed10DisplayArr3new17hc34b03b2bf8e1198E
	.cantunwind
	.fnend

	.section	.text._ZN3lib8newspeed10DisplayArr8new_full17h6c1f0e458234dc22E,"ax",%progbits
	.globl	_ZN3lib8newspeed10DisplayArr8new_full17h6c1f0e458234dc22E
	.p2align	1
	.type	_ZN3lib8newspeed10DisplayArr8new_full17h6c1f0e458234dc22E,%function
	.code	16
	.thumb_func
_ZN3lib8newspeed10DisplayArr8new_full17h6c1f0e458234dc22E:
	.fnstart
	.save	{r7, lr}
	push	{r7, lr}
	.setfp	r7, sp
	add	r7, sp, #0
	movs	r1, #1
	lsls	r1, r1, #10
	movs	r2, #255
	bl	__aeabi_memset8
	pop	{r7, pc}
.Lfunc_end11:
	.size	_ZN3lib8newspeed10DisplayArr8new_full17h6c1f0e458234dc22E, .Lfunc_end11-_ZN3lib8newspeed10DisplayArr8new_full17h6c1f0e458234dc22E
	.cantunwind
	.fnend

	.section	.text._ZN3lib8newspeed10DisplayArr14new_from_array17hdde164ba75114e22E,"ax",%progbits
	.globl	_ZN3lib8newspeed10DisplayArr14new_from_array17hdde164ba75114e22E
	.p2align	1
	.type	_ZN3lib8newspeed10DisplayArr14new_from_array17hdde164ba75114e22E,%function
	.code	16
	.thumb_func
_ZN3lib8newspeed10DisplayArr14new_from_array17hdde164ba75114e22E:
	.fnstart
	.save	{r4, r5, r6, r7, lr}
	push	{r4, r5, r6, r7, lr}
	.setfp	r7, sp, #12
	add	r7, sp, #12
	.pad	#508
	sub	sp, #508
	.pad	#56
	sub	sp, #56
	mov	r6, r1
	mov	r4, r0
	movs	r0, #1
	str	r0, [sp, #44]
	lsls	r1, r0, #9
	add	r5, sp, #48
	mov	r0, r5
	str	r1, [sp, #36]
	bl	__aeabi_memclr8
	movs	r0, #64
.LBB12_1:
	ldm	r6!, {r1, r2}
	stm	r5!, {r1, r2}
	adds	r6, #8
	adds	r5, #0
	subs	r0, r0, #1
	bne	.LBB12_1
	movs	r0, #128
	movs	r2, #0
	str	r2, [r4, r0]
	movs	r0, #7
	lsls	r1, r0, #7
	str	r1, [sp, #28]
	ldr	r0, [sp, #432]
	str	r0, [r4, r1]
	movs	r0, #3
	lsls	r3, r0, #8
	str	r3, [sp, #32]
	ldr	r1, [sp, #304]
	str	r1, [r4, r3]
	movs	r1, #5
	lsls	r6, r1, #7
	ldr	r1, [sp, #176]
	str	r1, [r4, r6]
	ldr	r1, [sp, #48]
	ldr	r3, [sp, #36]
	str	r1, [r4, r3]
	lsls	r0, r0, #7
	str	r0, [sp, #24]
	str	r2, [r4, r0]
	ldr	r0, [sp, #44]
	lsls	r0, r0, #8
	str	r0, [sp, #44]
	str	r2, [r4, r0]
	str	r2, [r4, #96]
	str	r2, [r4, #100]
	str	r2, [r4, #104]
	str	r2, [r4, #108]
	str	r2, [r4, #112]
	str	r2, [r4, #116]
	str	r2, [r4, #120]
	str	r2, [r4, #124]
	str	r2, [r4, #64]
	str	r2, [r4, #68]
	str	r2, [r4, #72]
	str	r2, [r4, #76]
	str	r2, [r4, #80]
	str	r2, [r4, #84]
	str	r2, [r4, #88]
	str	r2, [r4, #92]
	str	r2, [r4, #32]
	str	r2, [r4, #36]
	str	r2, [r4, #40]
	str	r2, [r4, #44]
	str	r2, [r4, #48]
	str	r2, [r4, #52]
	str	r2, [r4, #56]
	str	r2, [r4, #60]
	str	r2, [r4]
	str	r2, [r4, #4]
	str	r2, [r4, #8]
	str	r2, [r4, #12]
	str	r2, [r4, #16]
	str	r2, [r4, #20]
	str	r2, [r4, #24]
	str	r2, [r4, #28]
	mov	r0, r4
	adds	r0, #128
	str	r2, [r0, #100]
	str	r2, [r0, #104]
	str	r2, [r0, #108]
	str	r2, [r0, #112]
	str	r2, [r0, #116]
	str	r2, [r0, #120]
	str	r2, [r0, #124]
	str	r2, [r0, #68]
	str	r2, [r0, #72]
	str	r2, [r0, #76]
	str	r2, [r0, #80]
	str	r2, [r0, #84]
	str	r2, [r0, #88]
	str	r2, [r0, #92]
	str	r2, [r0, #96]
	str	r2, [r0, #36]
	str	r2, [r0, #40]
	str	r2, [r0, #44]
	str	r2, [r0, #48]
	str	r2, [r0, #52]
	str	r2, [r0, #56]
	str	r2, [r0, #60]
	str	r2, [r0, #64]
	str	r2, [r0, #4]
	str	r2, [r0, #8]
	str	r2, [r0, #12]
	str	r2, [r0, #16]
	str	r2, [r0, #20]
	str	r2, [r0, #24]
	str	r2, [r0, #28]
	str	r2, [r0, #32]
	adds	r0, r4, r6
	add	r6, sp, #48
	str	r6, [sp, #40]
	adds	r6, #128
	ldr	r1, [r6, #100]
	str	r1, [sp, #4]
	ldr	r3, [r6, #104]
	ldr	r5, [r6, #108]
	ldr	r1, [r6, #112]
	str	r1, [sp, #8]
	ldr	r1, [r6, #116]
	str	r1, [sp, #12]
	ldr	r1, [r6, #120]
	str	r1, [sp, #16]
	ldr	r1, [r6, #124]
	str	r1, [sp, #20]
	ldr	r1, [sp, #4]
	str	r1, [r0, #100]
	str	r3, [r0, #104]
	str	r5, [r0, #108]
	ldr	r1, [sp, #8]
	str	r1, [r0, #112]
	ldr	r1, [sp, #12]
	str	r1, [r0, #116]
	ldr	r1, [sp, #16]
	str	r1, [r0, #120]
	ldr	r1, [sp, #20]
	str	r1, [r0, #124]
	ldr	r1, [r6, #68]
	str	r1, [sp]
	ldr	r3, [r6, #72]
	ldr	r5, [r6, #76]
	ldr	r1, [r6, #80]
	str	r1, [sp, #4]
	ldr	r1, [r6, #84]
	str	r1, [sp, #8]
	ldr	r1, [r6, #88]
	str	r1, [sp, #12]
	ldr	r1, [r6, #92]
	str	r1, [sp, #16]
	ldr	r1, [r6, #96]
	str	r1, [sp, #20]
	ldr	r1, [sp]
	str	r1, [r0, #68]
	str	r3, [r0, #72]
	str	r5, [r0, #76]
	ldr	r1, [sp, #4]
	str	r1, [r0, #80]
	ldr	r1, [sp, #8]
	str	r1, [r0, #84]
	ldr	r1, [sp, #12]
	str	r1, [r0, #88]
	ldr	r1, [sp, #16]
	str	r1, [r0, #92]
	ldr	r1, [sp, #20]
	str	r1, [r0, #96]
	ldr	r1, [r6, #36]
	str	r1, [sp]
	ldr	r3, [r6, #40]
	ldr	r5, [r6, #44]
	ldr	r1, [r6, #48]
	str	r1, [sp, #4]
	ldr	r1, [r6, #52]
	str	r1, [sp, #8]
	ldr	r1, [r6, #56]
	str	r1, [sp, #12]
	ldr	r1, [r6, #60]
	str	r1, [sp, #16]
	ldr	r1, [r6, #64]
	str	r1, [sp, #20]
	ldr	r1, [sp]
	str	r1, [r0, #36]
	str	r3, [r0, #40]
	str	r5, [r0, #44]
	ldr	r1, [sp, #4]
	str	r1, [r0, #48]
	ldr	r1, [sp, #8]
	str	r1, [r0, #52]
	ldr	r1, [sp, #12]
	str	r1, [r0, #56]
	ldr	r1, [sp, #16]
	str	r1, [r0, #60]
	ldr	r1, [sp, #20]
	str	r1, [r0, #64]
	ldr	r1, [r6, #4]
	str	r1, [sp, #4]
	ldr	r3, [r6, #8]
	ldr	r5, [r6, #12]
	ldr	r1, [r6, #16]
	str	r1, [sp, #8]
	ldr	r1, [r6, #20]
	str	r1, [sp, #12]
	ldr	r1, [r6, #24]
	str	r1, [sp, #16]
	ldr	r1, [r6, #28]
	str	r1, [sp, #20]
	ldr	r6, [r6, #32]
	ldr	r1, [sp, #4]
	str	r1, [r0, #4]
	str	r3, [r0, #8]
	str	r5, [r0, #12]
	ldr	r1, [sp, #8]
	str	r1, [r0, #16]
	ldr	r1, [sp, #12]
	str	r1, [r0, #20]
	ldr	r1, [sp, #16]
	str	r1, [r0, #24]
	ldr	r1, [sp, #20]
	str	r1, [r0, #28]
	str	r6, [r0, #32]
	ldr	r0, [sp, #36]
	adds	r0, r4, r0
	ldr	r1, [sp, #172]
	str	r1, [sp, #36]
	ldr	r1, [sp, #168]
	str	r1, [sp, #20]
	ldr	r1, [sp, #164]
	str	r1, [sp, #16]
	add	r6, sp, #152
	ldm	r6, {r1, r3, r6}
	ldr	r5, [sp, #148]
	str	r5, [r0, #100]
	mov	r5, r0
	adds	r5, #104
	stm	r5!, {r1, r3, r6}
	ldr	r1, [sp, #16]
	str	r1, [r0, #116]
	ldr	r1, [sp, #20]
	str	r1, [r0, #120]
	ldr	r1, [sp, #36]
	str	r1, [r0, #124]
	ldr	r1, [sp, #144]
	str	r1, [sp, #36]
	ldr	r1, [sp, #140]
	str	r1, [sp, #20]
	ldr	r1, [sp, #136]
	str	r1, [sp, #16]
	ldr	r1, [sp, #132]
	str	r1, [sp, #12]
	ldr	r5, [sp, #128]
	ldr	r3, [sp, #124]
	ldr	r1, [sp, #120]
	ldr	r6, [sp, #116]
	str	r6, [r0, #68]
	str	r1, [r0, #72]
	str	r3, [r0, #76]
	str	r5, [r0, #80]
	ldr	r1, [sp, #12]
	str	r1, [r0, #84]
	ldr	r1, [sp, #16]
	str	r1, [r0, #88]
	ldr	r1, [sp, #20]
	str	r1, [r0, #92]
	ldr	r1, [sp, #36]
	str	r1, [r0, #96]
	ldr	r1, [sp, #112]
	str	r1, [sp, #36]
	ldr	r1, [sp, #108]
	str	r1, [sp, #20]
	ldr	r1, [sp, #104]
	str	r1, [sp, #16]
	ldr	r1, [sp, #100]
	str	r1, [sp, #12]
	ldr	r5, [sp, #96]
	ldr	r3, [sp, #92]
	ldr	r1, [sp, #88]
	ldr	r6, [sp, #84]
	str	r6, [r0, #36]
	str	r1, [r0, #40]
	str	r3, [r0, #44]
	str	r5, [r0, #48]
	ldr	r1, [sp, #12]
	str	r1, [r0, #52]
	ldr	r1, [sp, #16]
	str	r1, [r0, #56]
	ldr	r1, [sp, #20]
	str	r1, [r0, #60]
	ldr	r1, [sp, #36]
	str	r1, [r0, #64]
	ldr	r1, [sp, #80]
	str	r1, [sp, #36]
	ldr	r1, [sp, #76]
	str	r1, [sp, #20]
	ldr	r1, [sp, #72]
	str	r1, [sp, #16]
	ldr	r1, [sp, #68]
	str	r1, [sp, #12]
	add	r5, sp, #56
	ldm	r5, {r1, r3, r5}
	ldr	r6, [sp, #52]
	str	r6, [r0, #4]
	mov	r6, r0
	adds	r6, #8
	stm	r6!, {r1, r3, r5}
	ldr	r1, [sp, #12]
	str	r1, [r0, #20]
	ldr	r1, [sp, #16]
	str	r1, [r0, #24]
	ldr	r1, [sp, #20]
	str	r1, [r0, #28]
	ldr	r1, [sp, #36]
	str	r1, [r0, #32]
	ldr	r1, [sp, #24]
	adds	r0, r4, r1
	str	r2, [r0, #100]
	str	r2, [r0, #104]
	str	r2, [r0, #108]
	str	r2, [r0, #112]
	str	r2, [r0, #116]
	str	r2, [r0, #120]
	str	r2, [r0, #124]
	str	r2, [r0, #68]
	str	r2, [r0, #72]
	str	r2, [r0, #76]
	str	r2, [r0, #80]
	str	r2, [r0, #84]
	str	r2, [r0, #88]
	str	r2, [r0, #92]
	str	r2, [r0, #96]
	str	r2, [r0, #36]
	str	r2, [r0, #40]
	str	r2, [r0, #44]
	str	r2, [r0, #48]
	str	r2, [r0, #52]
	str	r2, [r0, #56]
	str	r2, [r0, #60]
	str	r2, [r0, #64]
	str	r2, [r0, #4]
	str	r2, [r0, #8]
	str	r2, [r0, #12]
	str	r2, [r0, #16]
	str	r2, [r0, #20]
	str	r2, [r0, #24]
	str	r2, [r0, #28]
	str	r2, [r0, #32]
	ldr	r0, [sp, #44]
	adds	r0, r4, r0
	str	r2, [r0, #100]
	str	r2, [r0, #104]
	str	r2, [r0, #108]
	str	r2, [r0, #112]
	str	r2, [r0, #116]
	str	r2, [r0, #120]
	str	r2, [r0, #124]
	str	r2, [r0, #68]
	str	r2, [r0, #72]
	str	r2, [r0, #76]
	str	r2, [r0, #80]
	str	r2, [r0, #84]
	str	r2, [r0, #88]
	str	r2, [r0, #92]
	str	r2, [r0, #96]
	str	r2, [r0, #36]
	str	r2, [r0, #40]
	str	r2, [r0, #44]
	str	r2, [r0, #48]
	str	r2, [r0, #52]
	str	r2, [r0, #56]
	str	r2, [r0, #60]
	str	r2, [r0, #64]
	str	r2, [r0, #4]
	str	r2, [r0, #8]
	str	r2, [r0, #12]
	str	r2, [r0, #16]
	str	r2, [r0, #20]
	str	r2, [r0, #24]
	str	r2, [r0, #28]
	str	r2, [r0, #32]
	ldr	r0, [sp, #28]
	adds	r0, r4, r0
	ldr	r2, [sp, #40]
	adds	r2, r2, r1
	ldr	r1, [r2, #100]
	str	r1, [sp, #20]
	mov	r6, r2
	adds	r6, #104
	ldm	r6, {r3, r5, r6}
	ldr	r1, [r2, #116]
	str	r1, [sp, #24]
	ldr	r1, [r2, #120]
	str	r1, [sp, #28]
	ldr	r1, [r2, #124]
	str	r1, [sp, #36]
	ldr	r1, [sp, #20]
	str	r1, [r0, #100]
	str	r3, [r0, #104]
	str	r5, [r0, #108]
	str	r6, [r0, #112]
	ldr	r1, [sp, #24]
	str	r1, [r0, #116]
	ldr	r1, [sp, #28]
	str	r1, [r0, #120]
	ldr	r1, [sp, #36]
	str	r1, [r0, #124]
	ldr	r1, [r2, #68]
	str	r1, [sp, #16]
	ldr	r3, [r2, #72]
	ldr	r5, [r2, #76]
	ldr	r6, [r2, #80]
	ldr	r1, [r2, #84]
	str	r1, [sp, #20]
	ldr	r1, [r2, #88]
	str	r1, [sp, #24]
	ldr	r1, [r2, #92]
	str	r1, [sp, #28]
	ldr	r1, [r2, #96]
	str	r1, [sp, #36]
	ldr	r1, [sp, #16]
	str	r1, [r0, #68]
	str	r3, [r0, #72]
	str	r5, [r0, #76]
	str	r6, [r0, #80]
	ldr	r1, [sp, #20]
	str	r1, [r0, #84]
	ldr	r1, [sp, #24]
	str	r1, [r0, #88]
	ldr	r1, [sp, #28]
	str	r1, [r0, #92]
	ldr	r1, [sp, #36]
	str	r1, [r0, #96]
	ldr	r1, [r2, #36]
	str	r1, [sp, #16]
	ldr	r3, [r2, #40]
	ldr	r5, [r2, #44]
	ldr	r6, [r2, #48]
	ldr	r1, [r2, #52]
	str	r1, [sp, #20]
	ldr	r1, [r2, #56]
	str	r1, [sp, #24]
	ldr	r1, [r2, #60]
	str	r1, [sp, #28]
	ldr	r1, [r2, #64]
	str	r1, [sp, #36]
	ldr	r1, [sp, #16]
	str	r1, [r0, #36]
	str	r3, [r0, #40]
	str	r5, [r0, #44]
	str	r6, [r0, #48]
	ldr	r1, [sp, #20]
	str	r1, [r0, #52]
	ldr	r1, [sp, #24]
	str	r1, [r0, #56]
	ldr	r1, [sp, #28]
	str	r1, [r0, #60]
	ldr	r1, [sp, #36]
	str	r1, [r0, #64]
	ldr	r1, [r2, #4]
	str	r1, [sp, #20]
	ldr	r3, [r2, #8]
	ldr	r5, [r2, #12]
	ldr	r6, [r2, #16]
	ldr	r1, [r2, #20]
	str	r1, [sp, #24]
	ldr	r1, [r2, #24]
	str	r1, [sp, #28]
	ldr	r1, [r2, #28]
	str	r1, [sp, #36]
	ldr	r2, [r2, #32]
	ldr	r1, [sp, #20]
	str	r1, [r0, #4]
	str	r3, [r0, #8]
	str	r5, [r0, #12]
	str	r6, [r0, #16]
	ldr	r1, [sp, #24]
	str	r1, [r0, #20]
	ldr	r1, [sp, #28]
	str	r1, [r0, #24]
	ldr	r1, [sp, #36]
	str	r1, [r0, #28]
	str	r2, [r0, #32]
	ldr	r0, [sp, #32]
	adds	r0, r4, r0
	ldr	r1, [sp, #44]
	ldr	r2, [sp, #40]
	adds	r1, r2, r1
	ldr	r2, [r1, #100]
	str	r2, [sp, #36]
	mov	r6, r1
	adds	r6, #104
	ldm	r6, {r3, r4, r5, r6}
	ldr	r2, [r1, #120]
	str	r2, [sp, #40]
	ldr	r2, [r1, #124]
	str	r2, [sp, #44]
	ldr	r2, [sp, #36]
	str	r2, [r0, #100]
	str	r3, [r0, #104]
	str	r4, [r0, #108]
	str	r5, [r0, #112]
	str	r6, [r0, #116]
	ldr	r2, [sp, #40]
	str	r2, [r0, #120]
	ldr	r2, [sp, #44]
	str	r2, [r0, #124]
	ldr	r2, [r1, #68]
	str	r2, [sp, #32]
	ldr	r3, [r1, #72]
	ldr	r4, [r1, #76]
	ldr	r5, [r1, #80]
	ldr	r6, [r1, #84]
	ldr	r2, [r1, #88]
	str	r2, [sp, #36]
	ldr	r2, [r1, #92]
	str	r2, [sp, #40]
	ldr	r2, [r1, #96]
	str	r2, [sp, #44]
	ldr	r2, [sp, #32]
	str	r2, [r0, #68]
	str	r3, [r0, #72]
	str	r4, [r0, #76]
	str	r5, [r0, #80]
	str	r6, [r0, #84]
	ldr	r2, [sp, #36]
	str	r2, [r0, #88]
	ldr	r2, [sp, #40]
	str	r2, [r0, #92]
	ldr	r2, [sp, #44]
	str	r2, [r0, #96]
	ldr	r2, [r1, #36]
	str	r2, [sp, #32]
	ldr	r3, [r1, #40]
	ldr	r4, [r1, #44]
	ldr	r5, [r1, #48]
	ldr	r6, [r1, #52]
	ldr	r2, [r1, #56]
	str	r2, [sp, #36]
	ldr	r2, [r1, #60]
	str	r2, [sp, #40]
	ldr	r2, [r1, #64]
	str	r2, [sp, #44]
	ldr	r2, [sp, #32]
	str	r2, [r0, #36]
	str	r3, [r0, #40]
	str	r4, [r0, #44]
	str	r5, [r0, #48]
	str	r6, [r0, #52]
	ldr	r2, [sp, #36]
	str	r2, [r0, #56]
	ldr	r2, [sp, #40]
	str	r2, [r0, #60]
	ldr	r2, [sp, #44]
	str	r2, [r0, #64]
	ldr	r2, [r1, #4]
	str	r2, [sp, #36]
	mov	r6, r1
	adds	r6, #8
	ldm	r6, {r3, r4, r5, r6}
	ldr	r2, [r1, #24]
	str	r2, [sp, #40]
	ldr	r2, [r1, #28]
	str	r2, [sp, #44]
	ldr	r1, [r1, #32]
	ldr	r2, [sp, #36]
	str	r2, [r0, #4]
	str	r3, [r0, #8]
	str	r4, [r0, #12]
	str	r5, [r0, #16]
	str	r6, [r0, #20]
	ldr	r2, [sp, #40]
	str	r2, [r0, #24]
	ldr	r2, [sp, #44]
	str	r2, [r0, #28]
	str	r1, [r0, #32]
	subs	r4, r7, #7
	subs	r4, #5
	mov	sp, r4
	pop	{r4, r5, r6, r7, pc}
.Lfunc_end12:
	.size	_ZN3lib8newspeed10DisplayArr14new_from_array17hdde164ba75114e22E, .Lfunc_end12-_ZN3lib8newspeed10DisplayArr14new_from_array17hdde164ba75114e22E
	.cantunwind
	.fnend

	.section	.text._ZN3lib8newspeed10DisplayArr3row17h670b82afe997adc8E,"ax",%progbits
	.globl	_ZN3lib8newspeed10DisplayArr3row17h670b82afe997adc8E
	.p2align	1
	.type	_ZN3lib8newspeed10DisplayArr3row17h670b82afe997adc8E,%function
	.code	16
	.thumb_func
_ZN3lib8newspeed10DisplayArr3row17h670b82afe997adc8E:
	.fnstart
	.save	{r4, r5, r7, lr}
	push	{r4, r5, r7, lr}
	.setfp	r7, sp, #8
	add	r7, sp, #8
	cmp	r2, #64
	bhs	.LBB13_2
	lsls	r2, r2, #3
	ldr	r3, [r1, r2]
	adds	r1, r1, r2
	ldr	r2, [r1, #4]
	movs	r4, #1
	lsls	r4, r4, #9
	ldr	r5, [r1, r4]
	adds	r1, r1, r4
	ldr	r1, [r1, #4]
	str	r5, [r0, #8]
	str	r1, [r0, #12]
	str	r3, [r0, #16]
	str	r2, [r0, #20]
	movs	r1, #0
	b	.LBB13_3
.LBB13_2:
	movs	r1, #63
	movs	r3, #0
	str	r3, [r0, #4]
	str	r1, [r0, #8]
	str	r2, [r0, #12]
	movs	r1, #1
.LBB13_3:
	str	r1, [r0]
	pop	{r4, r5, r7, pc}
.Lfunc_end13:
	.size	_ZN3lib8newspeed10DisplayArr3row17h670b82afe997adc8E, .Lfunc_end13-_ZN3lib8newspeed10DisplayArr3row17h670b82afe997adc8E
	.cantunwind
	.fnend

	.section	.text._ZN3lib8newspeed10DisplayArr6column17h1ccc5cb4e5583e52E,"ax",%progbits
	.globl	_ZN3lib8newspeed10DisplayArr6column17h1ccc5cb4e5583e52E
	.p2align	1
	.type	_ZN3lib8newspeed10DisplayArr6column17h1ccc5cb4e5583e52E,%function
	.code	16
	.thumb_func
_ZN3lib8newspeed10DisplayArr6column17h1ccc5cb4e5583e52E:
	.fnstart
	.save	{r4, r5, r6, r7, lr}
	push	{r4, r5, r6, r7, lr}
	.setfp	r7, sp, #12
	add	r7, sp, #12
	.pad	#20
	sub	sp, #20
	mov	r4, r1
	str	r2, [sp, #12]
	cmp	r2, #63
	bhi	.LBB14_3
	str	r0, [sp]
	movs	r0, #1
	movs	r5, #0
	mov	r1, r5
	ldr	r2, [sp, #12]
	bl	__aeabi_llsl
	str	r0, [sp, #8]
	str	r1, [sp, #4]
	mov	r1, r5
	mov	r6, r5
.LBB14_2:
	str	r1, [sp, #16]
	ldm	r4!, {r0, r1}
	ldr	r2, [sp, #8]
	ands	r0, r2
	ldr	r2, [sp, #4]
	ands	r1, r2
	ldr	r2, [sp, #12]
	subs	r4, #8
	bl	__aeabi_llsr
	mov	r2, r6
	bl	__aeabi_llsl
	orrs	r5, r1
	ldr	r1, [sp, #16]
	orrs	r1, r0
	adds	r4, #8
	adds	r6, r6, #1
	cmp	r6, #64
	bne	.LBB14_2
	b	.LBB14_6
.LBB14_3:
	ldr	r1, [sp, #12]
	cmp	r1, #127
	bhi	.LBB14_7
	str	r0, [sp]
	ldr	r2, [sp, #12]
	subs	r2, #64
	movs	r6, #1
	movs	r5, #0
	mov	r0, r6
	mov	r1, r5
	str	r2, [sp, #12]
	bl	__aeabi_llsl
	str	r0, [sp, #8]
	str	r1, [sp, #4]
	mov	r1, r5
	lsls	r0, r6, #9
	adds	r6, r4, r0
	mov	r4, r5
.LBB14_5:
	str	r1, [sp, #16]
	ldm	r6!, {r0, r1}
	ldr	r2, [sp, #8]
	ands	r0, r2
	ldr	r2, [sp, #4]
	ands	r1, r2
	ldr	r2, [sp, #12]
	subs	r6, #8
	bl	__aeabi_llsr
	mov	r2, r4
	bl	__aeabi_llsl
	orrs	r5, r1
	ldr	r1, [sp, #16]
	orrs	r1, r0
	adds	r6, #8
	adds	r4, r4, #1
	cmp	r4, #64
	bne	.LBB14_5
.LBB14_6:
	ldr	r0, [sp]
	str	r1, [r0, #8]
	str	r5, [r0, #12]
	movs	r2, #0
	b	.LBB14_8
.LBB14_7:
	movs	r1, #127
	movs	r2, #1
	str	r2, [r0, #4]
	str	r1, [r0, #8]
	ldr	r1, [sp, #12]
	str	r1, [r0, #12]
.LBB14_8:
	str	r2, [r0]
	add	sp, #20
	pop	{r4, r5, r6, r7, pc}
.Lfunc_end14:
	.size	_ZN3lib8newspeed10DisplayArr6column17h1ccc5cb4e5583e52E, .Lfunc_end14-_ZN3lib8newspeed10DisplayArr6column17h1ccc5cb4e5583e52E
	.cantunwind
	.fnend

	.section	.text._ZN3lib8newspeed10DisplayArr7set_row17h9ea3419fae17057aE,"ax",%progbits
	.globl	_ZN3lib8newspeed10DisplayArr7set_row17h9ea3419fae17057aE
	.p2align	1
	.type	_ZN3lib8newspeed10DisplayArr7set_row17h9ea3419fae17057aE,%function
	.code	16
	.thumb_func
_ZN3lib8newspeed10DisplayArr7set_row17h9ea3419fae17057aE:
	.fnstart
	.save	{r4, r5, r7, lr}
	push	{r4, r5, r7, lr}
	.setfp	r7, sp, #8
	add	r7, sp, #8
	cmp	r2, #64
	bhs	.LBB15_2
	ldr	r3, [r7, #12]
	ldr	r4, [r7, #8]
	lsls	r2, r2, #3
	movs	r5, #0
	str	r5, [r1, r2]
	adds	r1, r1, r2
	movs	r2, #1
	lsls	r2, r2, #9
	str	r4, [r1, r2]
	str	r5, [r1, #4]
	adds	r1, r1, r2
	str	r3, [r1, #4]
	movs	r1, #2
	b	.LBB15_3
.LBB15_2:
	movs	r1, #63
	str	r1, [r0, #4]
	str	r2, [r0, #8]
	movs	r1, #0
.LBB15_3:
	str	r1, [r0]
	pop	{r4, r5, r7, pc}
.Lfunc_end15:
	.size	_ZN3lib8newspeed10DisplayArr7set_row17h9ea3419fae17057aE, .Lfunc_end15-_ZN3lib8newspeed10DisplayArr7set_row17h9ea3419fae17057aE
	.cantunwind
	.fnend

	.section	.text._ZN3lib8newspeed10DisplayArr8oreq_row17h67d711e9dc5de171E,"ax",%progbits
	.globl	_ZN3lib8newspeed10DisplayArr8oreq_row17h67d711e9dc5de171E
	.p2align	1
	.type	_ZN3lib8newspeed10DisplayArr8oreq_row17h67d711e9dc5de171E,%function
	.code	16
	.thumb_func
_ZN3lib8newspeed10DisplayArr8oreq_row17h67d711e9dc5de171E:
	.fnstart
	.save	{r4, r5, r7, lr}
	push	{r4, r5, r7, lr}
	.setfp	r7, sp, #8
	add	r7, sp, #8
	cmp	r2, #64
	bhs	.LBB16_2
	ldr	r3, [r7, #12]
	ldr	r4, [r7, #8]
	lsls	r2, r2, #3
	adds	r1, r1, r2
	movs	r2, #1
	lsls	r2, r2, #9
	ldr	r5, [r1, r2]
	orrs	r5, r4
	str	r5, [r1, r2]
	adds	r1, r1, r2
	ldr	r2, [r1, #4]
	orrs	r2, r3
	str	r2, [r1, #4]
	movs	r1, #2
	b	.LBB16_3
.LBB16_2:
	movs	r1, #63
	str	r1, [r0, #4]
	str	r2, [r0, #8]
	movs	r1, #0
.LBB16_3:
	str	r1, [r0]
	pop	{r4, r5, r7, pc}
.Lfunc_end16:
	.size	_ZN3lib8newspeed10DisplayArr8oreq_row17h67d711e9dc5de171E, .Lfunc_end16-_ZN3lib8newspeed10DisplayArr8oreq_row17h67d711e9dc5de171E
	.cantunwind
	.fnend

	.section	.text._ZN3lib8newspeed10DisplayArr3bit17h1722567885f4ba0cE,"ax",%progbits
	.globl	_ZN3lib8newspeed10DisplayArr3bit17h1722567885f4ba0cE
	.p2align	1
	.type	_ZN3lib8newspeed10DisplayArr3bit17h1722567885f4ba0cE,%function
	.code	16
	.thumb_func
_ZN3lib8newspeed10DisplayArr3bit17h1722567885f4ba0cE:
	.fnstart
	.save	{r4, r5, r6, r7, lr}
	push	{r4, r5, r6, r7, lr}
	.setfp	r7, sp, #12
	add	r7, sp, #12
	.pad	#12
	sub	sp, #12
	mov	r5, r3
	mov	r3, r2
	mov	r4, r0
	mov	r6, r5
	cmp	r5, #63
	bls	.LBB17_2
	subs	r6, #64
.LBB17_2:
	cmp	r3, #63
	bhi	.LBB17_5
	cmp	r6, #63
	bls	.LBB17_6
	movs	r0, #63
	movs	r1, #1
	str	r1, [r4]
	str	r0, [r4, #4]
	str	r6, [r4, #8]
	b	.LBB17_10
.LBB17_5:
	movs	r0, #63
	movs	r1, #0
	str	r1, [r4]
	str	r0, [r4, #4]
	str	r3, [r4, #8]
	b	.LBB17_10
.LBB17_6:
	str	r1, [sp, #8]
	movs	r0, #2
	str	r0, [r4]
	movs	r0, #1
	movs	r1, #0
	str	r0, [sp]
	mov	r2, r6
	str	r3, [sp, #4]
	bl	__aeabi_llsl
	ldr	r3, [sp, #4]
	cmp	r5, #63
	bhi	.LBB17_8
	ldr	r5, [sp, #8]
	b	.LBB17_9
.LBB17_8:
	ldr	r2, [sp]
	lsls	r2, r2, #9
	ldr	r5, [sp, #8]
	adds	r5, r5, r2
.LBB17_9:
	lsls	r3, r3, #3
	ldr	r2, [r5, r3]
	ands	r2, r0
	adds	r0, r5, r3
	ldr	r3, [r0, #4]
	ands	r3, r1
	mov	r0, r2
	mov	r1, r3
	mov	r2, r6
	bl	__aeabi_llsr
	strb	r0, [r4, #4]
.LBB17_10:
	add	sp, #12
	pop	{r4, r5, r6, r7, pc}
.Lfunc_end17:
	.size	_ZN3lib8newspeed10DisplayArr3bit17h1722567885f4ba0cE, .Lfunc_end17-_ZN3lib8newspeed10DisplayArr3bit17h1722567885f4ba0cE
	.cantunwind
	.fnend

	.section	.text._ZN3lib8newspeed10DisplayArr17rotate_rows_right17ha05ad6e884311105E,"ax",%progbits
	.globl	_ZN3lib8newspeed10DisplayArr17rotate_rows_right17ha05ad6e884311105E
	.p2align	1
	.type	_ZN3lib8newspeed10DisplayArr17rotate_rows_right17ha05ad6e884311105E,%function
	.code	16
	.thumb_func
_ZN3lib8newspeed10DisplayArr17rotate_rows_right17ha05ad6e884311105E:
	.fnstart
	.save	{r4, r5, r6, r7, lr}
	push	{r4, r5, r6, r7, lr}
	.setfp	r7, sp, #12
	add	r7, sp, #12
	.pad	#40
	sub	sp, #40
	movs	r2, #0
	str	r2, [sp]
	mvns	r2, r2
	str	r1, [sp, #4]
.LBB18_1:
	str	r2, [sp, #24]
	movs	r6, #64
	ands	r6, r1
	movs	r2, #1
	lsls	r3, r2, #9
	ldr	r4, [r0, r3]
	ldr	r2, [r0]
	cmp	r6, #0
	str	r4, [sp, #32]
	beq	.LBB18_3
	mov	r4, r2
.LBB18_3:
	str	r4, [sp, #28]
	str	r3, [sp, #16]
	adds	r3, r0, r3
	str	r3, [sp, #20]
	ldr	r4, [r3, #4]
	ldr	r3, [r0, #4]
	cmp	r6, #0
	str	r4, [sp, #8]
	beq	.LBB18_5
	mov	r4, r3
.LBB18_5:
	movs	r5, #32
	ands	r5, r1
	str	r5, [sp, #36]
	beq	.LBB18_7
	str	r4, [sp, #28]
.LBB18_7:
	cmp	r6, #0
	beq	.LBB18_9
	ldr	r2, [sp, #32]
.LBB18_9:
	str	r3, [sp, #12]
	ldr	r3, [sp, #36]
	cmp	r3, #0
	beq	.LBB18_11
	mov	r4, r2
.LBB18_11:
	str	r2, [sp, #32]
	movs	r5, #31
	mov	r3, r1
	ands	r3, r5
	mov	r2, r4
	ldr	r4, [sp, #28]
	lsrs	r4, r3
	str	r2, [sp, #28]
	lsls	r2, r2, #1
	bics	r5, r1
	lsls	r2, r5
	orrs	r2, r4
	ldr	r1, [sp, #16]
	str	r2, [r0, r1]
	ldr	r1, [sp]
	str	r1, [r0]
	str	r1, [r0, #4]
	cmp	r6, #0
	beq	.LBB18_13
	ldr	r1, [sp, #8]
	str	r1, [sp, #12]
.LBB18_13:
	ldr	r1, [sp, #36]
	cmp	r1, #0
	ldr	r2, [sp, #24]
	beq	.LBB18_15
	ldr	r1, [sp, #12]
	str	r1, [sp, #32]
.LBB18_15:
	ldr	r4, [sp, #28]
	lsrs	r4, r3
	ldr	r1, [sp, #32]
	lsls	r1, r1, #1
	lsls	r1, r5
	orrs	r1, r4
	ldr	r3, [sp, #20]
	str	r1, [r3, #4]
	adds	r2, r2, #1
	adds	r0, #8
	cmp	r2, #63
	ldr	r1, [sp, #4]
	blo	.LBB18_1
	add	sp, #40
	pop	{r4, r5, r6, r7, pc}
.Lfunc_end18:
	.size	_ZN3lib8newspeed10DisplayArr17rotate_rows_right17ha05ad6e884311105E, .Lfunc_end18-_ZN3lib8newspeed10DisplayArr17rotate_rows_right17ha05ad6e884311105E
	.cantunwind
	.fnend

	.section	".text._ZN64_$LT$lib..newspeed..DisplayArr$u20$as$u20$core..fmt..Display$GT$3fmt17hb383e2b932dd53e7E","ax",%progbits
	.globl	_ZN64_$LT$lib..newspeed..DisplayArr$u20$as$u20$core..fmt..Display$GT$3fmt17hb383e2b932dd53e7E
	.p2align	2
	.type	_ZN64_$LT$lib..newspeed..DisplayArr$u20$as$u20$core..fmt..Display$GT$3fmt17hb383e2b932dd53e7E,%function
	.code	16
	.thumb_func
_ZN64_$LT$lib..newspeed..DisplayArr$u20$as$u20$core..fmt..Display$GT$3fmt17hb383e2b932dd53e7E:
	.fnstart
	.save	{r4, r5, r6, r7, lr}
	push	{r4, r5, r6, r7, lr}
	.setfp	r7, sp, #12
	add	r7, sp, #12
	ldr	r6, .LCPI19_75
	.pad	#2316
	add	sp, r6
	ldr	r2, .LCPI19_76
	add	r2, sp
	str	r2, [sp, #1016]
	ldr	r2, .LCPI19_77
	add	r2, sp
	str	r1, [r2]
	movs	r1, #128
	str	r1, [sp, #1008]
	ldr	r1, [r0, r1]
	ldr	r2, .LCPI19_78
	add	r2, sp
	str	r1, [r2]
	movs	r1, #1
	lsls	r2, r1, #8
	mov	r5, r1
	ldr	r3, .LCPI19_79
	add	r3, sp
	str	r1, [r3]
	ldr	r1, [r0, r2]
	mov	r6, r2
	str	r2, [sp, #936]
	ldr	r2, .LCPI19_80
	add	r2, sp
	str	r1, [r2]
	movs	r2, #3
	lsls	r4, r2, #7
	ldr	r1, [r0, r4]
	str	r4, [sp, #808]
	ldr	r3, .LCPI19_81
	add	r3, sp
	str	r1, [r3]
	movs	r1, #5
	lsls	r1, r1, #7
	str	r1, [sp, #768]
	ldr	r3, [r0, r1]
	ldr	r1, .LCPI19_82
	add	r1, sp
	str	r3, [r1]
	str	r2, [sp, #1004]
	lsls	r2, r2, #8
	ldr	r3, [r0, r2]
	str	r3, [sp, #1012]
	movs	r3, #7
	lsls	r1, r3, #7
	str	r1, [sp, #772]
	ldr	r3, [r0, r1]
	str	r3, [sp, #1000]
	adds	r3, r0, r6
	ldr	r6, [r3, #4]
	str	r6, [sp, #1020]
	ldr	r6, [r3, #8]
	str	r6, [sp, #996]
	ldr	r6, [r3, #12]
	str	r6, [sp, #992]
	ldr	r6, [r3, #16]
	str	r6, [sp, #988]
	ldr	r6, [r3, #20]
	str	r6, [sp, #984]
	ldr	r6, [r3, #24]
	str	r6, [sp, #980]
	ldr	r6, [r3, #28]
	str	r6, [sp, #976]
	ldr	r6, [r3, #32]
	str	r6, [sp, #972]
	ldr	r6, [r3, #36]
	str	r6, [sp, #968]
	ldr	r6, [r3, #40]
	str	r6, [sp, #964]
	ldr	r6, [r3, #44]
	str	r6, [sp, #960]
	ldr	r6, [r3, #48]
	str	r6, [sp, #956]
	ldr	r6, [r3, #52]
	str	r6, [sp, #952]
	ldr	r6, [r3, #56]
	str	r6, [sp, #948]
	ldr	r6, [r3, #60]
	str	r6, [sp, #944]
	ldr	r6, [r3, #64]
	str	r6, [sp, #940]
	ldr	r6, [r3, #68]
	str	r6, [sp, #932]
	ldr	r6, [r3, #72]
	str	r6, [sp, #928]
	ldr	r6, [r3, #76]
	str	r6, [sp, #924]
	ldr	r6, [r3, #80]
	str	r6, [sp, #920]
	ldr	r6, [r3, #84]
	str	r6, [sp, #916]
	ldr	r6, [r3, #88]
	str	r6, [sp, #912]
	ldr	r6, [r3, #92]
	str	r6, [sp, #908]
	ldr	r6, [r3, #96]
	str	r6, [sp, #904]
	ldr	r6, [r3, #100]
	str	r6, [sp, #900]
	ldr	r6, [r3, #104]
	str	r6, [sp, #896]
	ldr	r6, [r3, #108]
	str	r6, [sp, #892]
	ldr	r6, [r3, #112]
	str	r6, [sp, #888]
	ldr	r6, [r3, #116]
	str	r6, [sp, #884]
	ldr	r6, [r3, #120]
	str	r6, [sp, #880]
	ldr	r3, [r3, #124]
	str	r3, [sp, #876]
	adds	r3, r0, r4
	ldr	r4, [r3, #4]
	str	r4, [sp, #872]
	ldr	r4, [r3, #8]
	str	r4, [sp, #868]
	ldr	r4, [r3, #12]
	str	r4, [sp, #864]
	ldr	r4, [r3, #16]
	str	r4, [sp, #860]
	ldr	r4, [r3, #20]
	str	r4, [sp, #856]
	ldr	r4, [r3, #24]
	str	r4, [sp, #852]
	ldr	r4, [r3, #28]
	str	r4, [sp, #848]
	ldr	r4, [r3, #32]
	str	r4, [sp, #844]
	ldr	r4, [r3, #36]
	str	r4, [sp, #840]
	ldr	r4, [r3, #40]
	str	r4, [sp, #836]
	ldr	r4, [r3, #44]
	str	r4, [sp, #832]
	ldr	r4, [r3, #48]
	str	r4, [sp, #828]
	ldr	r4, [r3, #52]
	str	r4, [sp, #824]
	ldr	r4, [r3, #56]
	str	r4, [sp, #820]
	ldr	r4, [r3, #60]
	str	r4, [sp, #816]
	ldr	r4, [r3, #64]
	str	r4, [sp, #812]
	ldr	r4, [r3, #68]
	str	r4, [sp, #804]
	ldr	r4, [r3, #72]
	str	r4, [sp, #800]
	ldr	r4, [r3, #76]
	str	r4, [sp, #796]
	ldr	r4, [r3, #80]
	str	r4, [sp, #792]
	ldr	r4, [r3, #84]
	str	r4, [sp, #788]
	ldr	r4, [r3, #88]
	str	r4, [sp, #784]
	ldr	r4, [r3, #92]
	str	r4, [sp, #780]
	ldr	r4, [r3, #96]
	str	r4, [sp, #776]
	ldr	r4, [r3, #100]
	str	r4, [sp, #756]
	ldr	r4, [r3, #104]
	str	r4, [sp, #752]
	ldr	r4, [r3, #108]
	str	r4, [sp, #748]
	ldr	r4, [r3, #112]
	str	r4, [sp, #744]
	ldr	r4, [r3, #116]
	str	r4, [sp, #740]
	ldr	r4, [r3, #120]
	str	r4, [sp, #736]
	ldr	r3, [r3, #124]
	str	r3, [sp, #732]
	lsls	r4, r5, #9
	str	r4, [sp, #576]
	ldr	r3, [r0, r4]
	str	r3, [sp, #708]
	adds	r3, r0, r4
	ldr	r4, [r3, #4]
	str	r4, [sp, #700]
	ldr	r4, [r3, #8]
	str	r4, [sp, #692]
	ldr	r4, [r3, #12]
	str	r4, [sp, #684]
	ldr	r4, [r3, #16]
	str	r4, [sp, #676]
	ldr	r4, [r3, #20]
	str	r4, [sp, #668]
	ldr	r4, [r3, #24]
	str	r4, [sp, #660]
	ldr	r4, [r3, #28]
	str	r4, [sp, #636]
	ldr	r4, [r3, #32]
	str	r4, [sp, #632]
	ldr	r4, [r3, #36]
	str	r4, [sp, #628]
	ldr	r4, [r3, #40]
	str	r4, [sp, #624]
	ldr	r4, [r3, #44]
	str	r4, [sp, #620]
	ldr	r4, [r3, #48]
	str	r4, [sp, #616]
	ldr	r4, [r3, #52]
	str	r4, [sp, #612]
	ldr	r4, [r3, #56]
	str	r4, [sp, #608]
	ldr	r4, [r3, #60]
	str	r4, [sp, #568]
	ldr	r4, [r3, #64]
	str	r4, [sp, #564]
	ldr	r4, [r3, #68]
	str	r4, [sp, #560]
	ldr	r4, [r3, #72]
	str	r4, [sp, #556]
	ldr	r4, [r3, #76]
	str	r4, [sp, #552]
	ldr	r4, [r3, #80]
	str	r4, [sp, #548]
	ldr	r4, [r3, #84]
	str	r4, [sp, #544]
	ldr	r4, [r3, #88]
	str	r4, [sp, #540]
	ldr	r4, [r3, #92]
	str	r4, [sp, #520]
	ldr	r4, [r3, #96]
	str	r4, [sp, #516]
	ldr	r4, [r3, #100]
	str	r4, [sp, #512]
	ldr	r4, [r3, #104]
	str	r4, [sp, #508]
	ldr	r4, [r3, #108]
	str	r4, [sp, #504]
	ldr	r4, [r3, #112]
	str	r4, [sp, #500]
	ldr	r4, [r3, #116]
	str	r4, [sp, #496]
	ldr	r4, [r3, #120]
	str	r4, [sp, #492]
	ldr	r3, [r3, #124]
	str	r3, [sp, #488]
	ldr	r1, [sp, #768]
	adds	r1, r0, r1
	ldr	r3, [r1, #4]
	str	r3, [sp, #452]
	ldr	r3, [r1, #8]
	str	r3, [sp, #448]
	ldr	r3, [r1, #12]
	str	r3, [sp, #444]
	ldr	r3, [r1, #16]
	str	r3, [sp, #440]
	ldr	r3, [r1, #20]
	str	r3, [sp, #436]
	ldr	r3, [r1, #24]
	str	r3, [sp, #432]
	ldr	r3, [r1, #28]
	str	r3, [sp, #428]
	ldr	r3, [r1, #32]
	str	r3, [sp, #424]
	ldr	r3, [r1, #36]
	str	r3, [sp, #388]
	ldr	r3, [r1, #40]
	str	r3, [sp, #384]
	ldr	r3, [r1, #44]
	str	r3, [sp, #380]
	ldr	r3, [r1, #48]
	str	r3, [sp, #376]
	ldr	r3, [r1, #52]
	str	r3, [sp, #372]
	ldr	r3, [r1, #56]
	str	r3, [sp, #368]
	ldr	r3, [r1, #60]
	str	r3, [sp, #364]
	ldr	r3, [r1, #64]
	str	r3, [sp, #360]
	ldr	r3, [r1, #68]
	str	r3, [sp, #324]
	ldr	r3, [r1, #72]
	str	r3, [sp, #320]
	ldr	r3, [r1, #76]
	str	r3, [sp, #316]
	ldr	r3, [r1, #80]
	str	r3, [sp, #312]
	ldr	r3, [r1, #84]
	str	r3, [sp, #308]
	ldr	r3, [r1, #88]
	str	r3, [sp, #304]
	ldr	r3, [r1, #92]
	str	r3, [sp, #300]
	ldr	r3, [r1, #96]
	str	r3, [sp, #296]
	ldr	r3, [r1, #100]
	str	r3, [sp, #264]
	ldr	r3, [r1, #104]
	str	r3, [sp, #260]
	ldr	r3, [r1, #108]
	str	r3, [sp, #256]
	ldr	r3, [r1, #112]
	str	r3, [sp, #252]
	ldr	r3, [r1, #116]
	str	r3, [sp, #248]
	ldr	r3, [r1, #120]
	str	r3, [sp, #244]
	ldr	r1, [r1, #124]
	str	r1, [sp, #240]
	adds	r1, r0, r2
	ldr	r2, [r1, #4]
	str	r2, [sp, #236]
	ldr	r2, [r1, #8]
	str	r2, [sp, #232]
	ldr	r2, [r1, #12]
	str	r2, [sp, #228]
	ldr	r2, [r1, #16]
	str	r2, [sp, #224]
	ldr	r2, [r1, #20]
	str	r2, [sp, #220]
	ldr	r2, [r1, #24]
	str	r2, [sp, #216]
	ldr	r2, [r1, #28]
	str	r2, [sp, #212]
	ldr	r2, [r1, #32]
	str	r2, [sp, #208]
	ldr	r2, [r1, #36]
	str	r2, [sp, #204]
	ldr	r2, [r1, #40]
	str	r2, [sp, #200]
	ldr	r2, [r1, #44]
	str	r2, [sp, #196]
	ldr	r2, [r1, #48]
	str	r2, [sp, #192]
	ldr	r2, [r1, #52]
	str	r2, [sp, #188]
	ldr	r2, [r1, #56]
	str	r2, [sp, #184]
	ldr	r2, [r1, #60]
	str	r2, [sp, #180]
	ldr	r2, [r1, #64]
	str	r2, [sp, #176]
	ldr	r2, [r1, #68]
	str	r2, [sp, #172]
	ldr	r2, [r1, #72]
	str	r2, [sp, #168]
	ldr	r2, [r1, #76]
	str	r2, [sp, #164]
	ldr	r2, [r1, #80]
	str	r2, [sp, #160]
	ldr	r2, [r1, #84]
	str	r2, [sp, #156]
	ldr	r2, [r1, #88]
	str	r2, [sp, #152]
	ldr	r2, [r1, #92]
	str	r2, [sp, #148]
	ldr	r2, [r1, #96]
	str	r2, [sp, #144]
	ldr	r2, [r1, #100]
	str	r2, [sp, #140]
	ldr	r2, [r1, #104]
	str	r2, [sp, #136]
	ldr	r2, [r1, #108]
	str	r2, [sp, #132]
	ldr	r2, [r1, #112]
	str	r2, [sp, #128]
	ldr	r2, [r1, #116]
	str	r2, [sp, #124]
	ldr	r2, [r1, #120]
	str	r2, [sp, #120]
	ldr	r1, [r1, #124]
	str	r1, [sp, #116]
	ldr	r1, [sp, #772]
	adds	r6, r0, r1
	ldr	r1, [r6, #4]
	str	r1, [sp, #112]
	ldr	r1, [r6, #8]
	str	r1, [sp, #108]
	ldr	r1, [r6, #12]
	str	r1, [sp, #104]
	ldr	r1, [r6, #16]
	str	r1, [sp, #100]
	ldr	r1, [r6, #20]
	str	r1, [sp, #96]
	ldr	r1, [r6, #24]
	str	r1, [sp, #92]
	ldr	r1, [r6, #28]
	str	r1, [sp, #88]
	ldr	r1, [r6, #32]
	str	r1, [sp, #84]
	ldr	r1, [r6, #36]
	str	r1, [sp, #80]
	ldr	r1, [r6, #40]
	str	r1, [sp, #76]
	ldr	r1, [r6, #44]
	str	r1, [sp, #72]
	ldr	r1, [r6, #48]
	str	r1, [sp, #68]
	ldr	r1, [r6, #52]
	str	r1, [sp, #64]
	ldr	r1, [r6, #56]
	str	r1, [sp, #60]
	ldr	r1, [r6, #60]
	str	r1, [sp, #56]
	ldr	r1, [r6, #64]
	str	r1, [sp, #52]
	ldr	r1, [r6, #68]
	str	r1, [sp, #48]
	ldr	r1, [r6, #72]
	str	r1, [sp, #44]
	ldr	r1, [r6, #76]
	str	r1, [sp, #40]
	ldr	r1, [r6, #80]
	str	r1, [sp, #36]
	ldr	r1, [r6, #84]
	str	r1, [sp, #32]
	ldr	r1, [r6, #88]
	str	r1, [sp, #28]
	ldr	r1, [r6, #92]
	str	r1, [sp, #24]
	ldr	r1, [r6, #96]
	str	r1, [sp, #20]
	ldr	r1, [r6, #100]
	ldr	r2, [r6, #104]
	ldr	r3, [r6, #108]
	str	r3, [sp, #16]
	ldr	r4, [r6, #112]
	ldr	r3, [r6, #116]
	str	r3, [sp, #12]
	ldr	r3, [r6, #120]
	str	r3, [sp, #8]
	ldr	r3, [r6, #124]
	str	r3, [sp, #4]
	ldr	r3, [r0]
	str	r3, [sp, #772]
	ldr	r3, [r0, #4]
	str	r3, [sp, #768]
	ldr	r3, [r0, #8]
	str	r3, [sp, #764]
	ldr	r3, [r0, #12]
	str	r3, [sp, #760]
	ldr	r3, [r0, #16]
	str	r3, [sp, #728]
	ldr	r3, [r0, #20]
	str	r3, [sp, #724]
	ldr	r3, [r0, #24]
	str	r3, [sp, #720]
	ldr	r3, [r0, #28]
	str	r3, [sp, #716]
	ldr	r3, [r0, #32]
	str	r3, [sp, #712]
	ldr	r3, [r0, #36]
	str	r3, [sp, #704]
	ldr	r3, [r0, #40]
	str	r3, [sp, #696]
	ldr	r3, [r0, #44]
	str	r3, [sp, #688]
	ldr	r3, [r0, #48]
	str	r3, [sp, #680]
	ldr	r3, [r0, #52]
	str	r3, [sp, #672]
	ldr	r3, [r0, #56]
	str	r3, [sp, #664]
	ldr	r3, [r0, #60]
	str	r3, [sp, #656]
	ldr	r3, [r0, #64]
	str	r3, [sp, #652]
	ldr	r3, [r0, #68]
	str	r3, [sp, #648]
	ldr	r3, [r0, #72]
	str	r3, [sp, #644]
	ldr	r3, [r0, #76]
	str	r3, [sp, #640]
	ldr	r3, [r0, #80]
	str	r3, [sp, #604]
	ldr	r3, [r0, #84]
	str	r3, [sp, #600]
	ldr	r3, [r0, #88]
	str	r3, [sp, #596]
	ldr	r3, [r0, #92]
	str	r3, [sp, #592]
	ldr	r3, [r0, #96]
	str	r3, [sp, #588]
	ldr	r3, [r0, #100]
	str	r3, [sp, #584]
	ldr	r3, [r0, #104]
	str	r3, [sp, #580]
	ldr	r3, [r0, #108]
	str	r3, [sp, #572]
	ldr	r3, [r0, #112]
	str	r3, [sp, #536]
	ldr	r3, [r0, #116]
	str	r3, [sp, #532]
	ldr	r3, [r0, #120]
	str	r3, [sp, #528]
	ldr	r3, [r0, #124]
	str	r3, [sp, #524]
	adds	r0, #128
	ldr	r3, [r0, #4]
	str	r3, [sp, #484]
	ldr	r3, [r0, #8]
	str	r3, [sp, #480]
	ldr	r3, [r0, #12]
	str	r3, [sp, #476]
	ldr	r3, [r0, #16]
	str	r3, [sp, #472]
	ldr	r3, [r0, #20]
	b	.LBB19_9
	.p2align	2
.LCPI19_75:
	.long	4294964980
	.p2align	2
.LCPI19_76:
	.long	2120
	.p2align	2
.LCPI19_77:
	.long	1040
	.p2align	2
.LCPI19_78:
	.long	1036
	.p2align	2
.LCPI19_79:
	.long	1044
	.p2align	2
.LCPI19_80:
	.long	1032
	.p2align	2
.LCPI19_81:
	.long	1028
	.p2align	2
.LCPI19_82:
	.long	1024
	.p2align	1
.LBB19_9:
	str	r3, [sp, #468]
	ldr	r3, [r0, #24]
	str	r3, [sp, #464]
	ldr	r3, [r0, #28]
	str	r3, [sp, #460]
	ldr	r3, [r0, #32]
	str	r3, [sp, #456]
	ldr	r3, [r0, #36]
	str	r3, [sp, #420]
	ldr	r3, [r0, #40]
	str	r3, [sp, #416]
	ldr	r3, [r0, #44]
	str	r3, [sp, #412]
	ldr	r3, [r0, #48]
	str	r3, [sp, #408]
	ldr	r3, [r0, #52]
	str	r3, [sp, #404]
	ldr	r3, [r0, #56]
	str	r3, [sp, #400]
	ldr	r3, [r0, #60]
	str	r3, [sp, #396]
	ldr	r3, [r0, #64]
	str	r3, [sp, #392]
	ldr	r3, [r0, #68]
	str	r3, [sp, #356]
	ldr	r3, [r0, #72]
	str	r3, [sp, #352]
	ldr	r3, [r0, #76]
	str	r3, [sp, #348]
	ldr	r3, [r0, #80]
	str	r3, [sp, #344]
	ldr	r3, [r0, #84]
	str	r3, [sp, #340]
	ldr	r3, [r0, #88]
	str	r3, [sp, #336]
	ldr	r3, [r0, #92]
	str	r3, [sp, #332]
	ldr	r3, [r0, #96]
	str	r3, [sp, #328]
	ldr	r3, [r0, #100]
	str	r3, [sp, #292]
	ldr	r3, [r0, #104]
	str	r3, [sp, #288]
	ldr	r3, [r0, #108]
	str	r3, [sp, #284]
	ldr	r3, [r0, #112]
	str	r3, [sp, #280]
	ldr	r3, [r0, #116]
	str	r3, [sp, #276]
	ldr	r3, [r0, #120]
	str	r3, [sp, #272]
	ldr	r0, [r0, #124]
	str	r0, [sp, #268]
	movs	r0, #129
	lsls	r0, r0, #3
	add	r3, sp, #1020
	adds	r3, #28
	movs	r5, #0
	str	r5, [r3, r0]
	movs	r6, #113
	lsls	r6, r6, #3
	adds	r6, r3, r6
	str	r1, [r6, #100]
	str	r2, [r6, #104]
	ldr	r1, [sp, #16]
	str	r1, [r6, #108]
	str	r4, [r6, #112]
	ldr	r1, [sp, #12]
	str	r1, [r6, #116]
	ldr	r1, [sp, #8]
	str	r1, [r6, #120]
	ldr	r1, [sp, #4]
	str	r1, [r6, #124]
	ldr	r1, [sp, #48]
	str	r1, [r6, #68]
	ldr	r1, [sp, #44]
	str	r1, [r6, #72]
	ldr	r1, [sp, #40]
	str	r1, [r6, #76]
	ldr	r1, [sp, #36]
	str	r1, [r6, #80]
	ldr	r1, [sp, #32]
	str	r1, [r6, #84]
	ldr	r1, [sp, #28]
	str	r1, [r6, #88]
	ldr	r1, [sp, #24]
	str	r1, [r6, #92]
	ldr	r1, [sp, #20]
	str	r1, [r6, #96]
	ldr	r1, [sp, #80]
	str	r1, [r6, #36]
	ldr	r1, [sp, #76]
	str	r1, [r6, #40]
	ldr	r1, [sp, #72]
	str	r1, [r6, #44]
	ldr	r1, [sp, #68]
	str	r1, [r6, #48]
	ldr	r1, [sp, #64]
	str	r1, [r6, #52]
	ldr	r1, [sp, #60]
	str	r1, [r6, #56]
	ldr	r1, [sp, #56]
	str	r1, [r6, #60]
	ldr	r1, [sp, #52]
	str	r1, [r6, #64]
	ldr	r1, [sp, #112]
	str	r1, [r6, #4]
	ldr	r1, [sp, #108]
	str	r1, [r6, #8]
	ldr	r1, [sp, #104]
	str	r1, [r6, #12]
	ldr	r1, [sp, #100]
	str	r1, [r6, #16]
	ldr	r1, [sp, #96]
	str	r1, [r6, #20]
	ldr	r1, [sp, #92]
	str	r1, [r6, #24]
	ldr	r1, [sp, #88]
	str	r1, [r6, #28]
	ldr	r1, [sp, #84]
	str	r1, [r6, #32]
	movs	r1, #97
	lsls	r1, r1, #3
	adds	r1, r3, r1
	ldr	r2, [sp, #140]
	str	r2, [r1, #100]
	ldr	r2, [sp, #136]
	str	r2, [r1, #104]
	ldr	r2, [sp, #132]
	str	r2, [r1, #108]
	ldr	r2, [sp, #128]
	str	r2, [r1, #112]
	ldr	r2, [sp, #124]
	str	r2, [r1, #116]
	ldr	r2, [sp, #120]
	str	r2, [r1, #120]
	ldr	r2, [sp, #116]
	str	r2, [r1, #124]
	ldr	r2, [sp, #172]
	str	r2, [r1, #68]
	ldr	r2, [sp, #168]
	str	r2, [r1, #72]
	ldr	r2, [sp, #164]
	str	r2, [r1, #76]
	ldr	r2, [sp, #160]
	str	r2, [r1, #80]
	ldr	r2, [sp, #156]
	str	r2, [r1, #84]
	ldr	r2, [sp, #152]
	str	r2, [r1, #88]
	ldr	r2, [sp, #148]
	str	r2, [r1, #92]
	ldr	r2, [sp, #144]
	str	r2, [r1, #96]
	ldr	r2, [sp, #204]
	str	r2, [r1, #36]
	ldr	r2, [sp, #200]
	str	r2, [r1, #40]
	ldr	r2, [sp, #196]
	str	r2, [r1, #44]
	ldr	r2, [sp, #192]
	str	r2, [r1, #48]
	ldr	r2, [sp, #188]
	str	r2, [r1, #52]
	ldr	r2, [sp, #184]
	str	r2, [r1, #56]
	ldr	r2, [sp, #180]
	str	r2, [r1, #60]
	ldr	r2, [sp, #176]
	str	r2, [r1, #64]
	ldr	r2, [sp, #236]
	str	r2, [r1, #4]
	ldr	r2, [sp, #232]
	str	r2, [r1, #8]
	ldr	r2, [sp, #228]
	str	r2, [r1, #12]
	ldr	r2, [sp, #224]
	str	r2, [r1, #16]
	ldr	r2, [sp, #220]
	str	r2, [r1, #20]
	ldr	r2, [sp, #216]
	str	r2, [r1, #24]
	ldr	r2, [sp, #212]
	str	r2, [r1, #28]
	ldr	r2, [sp, #208]
	str	r2, [r1, #32]
	movs	r1, #81
	lsls	r1, r1, #3
	adds	r1, r3, r1
	ldr	r2, [sp, #264]
	str	r2, [r1, #100]
	ldr	r2, [sp, #260]
	str	r2, [r1, #104]
	ldr	r2, [sp, #256]
	str	r2, [r1, #108]
	ldr	r2, [sp, #252]
	str	r2, [r1, #112]
	ldr	r2, [sp, #248]
	str	r2, [r1, #116]
	ldr	r2, [sp, #244]
	str	r2, [r1, #120]
	ldr	r2, [sp, #240]
	str	r2, [r1, #124]
	ldr	r2, [sp, #324]
	str	r2, [r1, #68]
	ldr	r2, [sp, #320]
	str	r2, [r1, #72]
	ldr	r2, [sp, #316]
	str	r2, [r1, #76]
	ldr	r2, [sp, #312]
	str	r2, [r1, #80]
	ldr	r2, [sp, #308]
	str	r2, [r1, #84]
	ldr	r2, [sp, #304]
	str	r2, [r1, #88]
	ldr	r2, [sp, #300]
	str	r2, [r1, #92]
	ldr	r2, [sp, #296]
	str	r2, [r1, #96]
	ldr	r2, [sp, #388]
	str	r2, [r1, #36]
	ldr	r2, [sp, #384]
	str	r2, [r1, #40]
	ldr	r2, [sp, #380]
	str	r2, [r1, #44]
	ldr	r2, [sp, #376]
	str	r2, [r1, #48]
	ldr	r2, [sp, #372]
	str	r2, [r1, #52]
	ldr	r2, [sp, #368]
	str	r2, [r1, #56]
	ldr	r2, [sp, #364]
	str	r2, [r1, #60]
	ldr	r2, [sp, #360]
	str	r2, [r1, #64]
	ldr	r2, [sp, #452]
	str	r2, [r1, #4]
	ldr	r2, [sp, #448]
	str	r2, [r1, #8]
	ldr	r2, [sp, #444]
	str	r2, [r1, #12]
	ldr	r2, [sp, #440]
	str	r2, [r1, #16]
	ldr	r2, [sp, #436]
	str	r2, [r1, #20]
	ldr	r2, [sp, #432]
	str	r2, [r1, #24]
	ldr	r2, [sp, #428]
	str	r2, [r1, #28]
	ldr	r2, [sp, #424]
	str	r2, [r1, #32]
	ldr	r1, [sp, #576]
	adds	r4, r3, r1
	mov	r1, r4
	adds	r1, #8
	ldr	r2, [sp, #492]
	str	r2, [r1, #120]
	ldr	r2, [sp, #488]
	str	r2, [r1, #124]
	ldr	r1, [sp, #520]
	str	r1, [r4, #100]
	ldr	r1, [sp, #516]
	str	r1, [r4, #104]
	ldr	r1, [sp, #512]
	str	r1, [r4, #108]
	ldr	r1, [sp, #508]
	str	r1, [r4, #112]
	ldr	r1, [sp, #504]
	str	r1, [r4, #116]
	ldr	r1, [sp, #500]
	str	r1, [r4, #120]
	ldr	r1, [sp, #496]
	str	r1, [r4, #124]
	ldr	r1, [sp, #568]
	str	r1, [r4, #68]
	ldr	r1, [sp, #564]
	str	r1, [r4, #72]
	ldr	r1, [sp, #560]
	str	r1, [r4, #76]
	ldr	r1, [sp, #556]
	str	r1, [r4, #80]
	ldr	r1, [sp, #552]
	str	r1, [r4, #84]
	ldr	r1, [sp, #548]
	str	r1, [r4, #88]
	ldr	r1, [sp, #544]
	str	r1, [r4, #92]
	ldr	r1, [sp, #540]
	str	r1, [r4, #96]
	ldr	r1, [sp, #636]
	str	r1, [r4, #36]
	ldr	r1, [sp, #632]
	str	r1, [r4, #40]
	ldr	r1, [sp, #628]
	str	r1, [r4, #44]
	ldr	r1, [sp, #624]
	str	r1, [r4, #48]
	ldr	r1, [sp, #620]
	str	r1, [r4, #52]
	ldr	r1, [sp, #616]
	str	r1, [r4, #56]
	ldr	r1, [sp, #612]
	str	r1, [r4, #60]
	ldr	r1, [sp, #608]
	str	r1, [r4, #64]
	ldr	r1, [sp, #660]
	str	r1, [r4, #32]
	ldr	r1, [sp, #668]
	str	r1, [r4, #28]
	ldr	r1, [sp, #676]
	str	r1, [r4, #24]
	ldr	r1, [sp, #684]
	str	r1, [r4, #20]
	ldr	r1, [sp, #692]
	str	r1, [r4, #16]
	ldr	r1, [sp, #700]
	str	r1, [r4, #12]
	ldr	r1, [sp, #708]
	str	r1, [r4, #8]
	ldr	r1, [sp, #808]
	adds	r1, r3, r1
	ldr	r2, [sp, #756]
	str	r2, [r1, #100]
	ldr	r2, [sp, #752]
	str	r2, [r1, #104]
	ldr	r2, [sp, #748]
	str	r2, [r1, #108]
	ldr	r2, [sp, #744]
	str	r2, [r1, #112]
	ldr	r2, [sp, #740]
	str	r2, [r1, #116]
	ldr	r2, [sp, #736]
	str	r2, [r1, #120]
	ldr	r2, [sp, #732]
	str	r2, [r1, #124]
	ldr	r2, [sp, #804]
	str	r2, [r1, #68]
	ldr	r2, [sp, #800]
	str	r2, [r1, #72]
	ldr	r2, [sp, #796]
	str	r2, [r1, #76]
	ldr	r2, [sp, #792]
	str	r2, [r1, #80]
	ldr	r2, [sp, #788]
	str	r2, [r1, #84]
	ldr	r2, [sp, #784]
	str	r2, [r1, #88]
	ldr	r2, [sp, #780]
	str	r2, [r1, #92]
	ldr	r2, [sp, #776]
	str	r2, [r1, #96]
	ldr	r2, [sp, #840]
	str	r2, [r1, #36]
	ldr	r2, [sp, #836]
	str	r2, [r1, #40]
	ldr	r2, [sp, #832]
	str	r2, [r1, #44]
	ldr	r2, [sp, #828]
	str	r2, [r1, #48]
	ldr	r2, [sp, #824]
	str	r2, [r1, #52]
	ldr	r2, [sp, #820]
	str	r2, [r1, #56]
	ldr	r2, [sp, #816]
	str	r2, [r1, #60]
	ldr	r2, [sp, #812]
	str	r2, [r1, #64]
	ldr	r2, [sp, #872]
	str	r2, [r1, #4]
	ldr	r2, [sp, #868]
	str	r2, [r1, #8]
	ldr	r2, [sp, #864]
	str	r2, [r1, #12]
	ldr	r2, [sp, #860]
	str	r2, [r1, #16]
	ldr	r2, [sp, #856]
	str	r2, [r1, #20]
	ldr	r2, [sp, #852]
	str	r2, [r1, #24]
	ldr	r2, [sp, #848]
	str	r2, [r1, #28]
	ldr	r2, [sp, #844]
	str	r2, [r1, #32]
	ldr	r1, [sp, #936]
	adds	r1, r3, r1
	ldr	r2, [sp, #900]
	str	r2, [r1, #100]
	ldr	r2, [sp, #896]
	str	r2, [r1, #104]
	ldr	r2, [sp, #892]
	str	r2, [r1, #108]
	ldr	r2, [sp, #888]
	str	r2, [r1, #112]
	ldr	r2, [sp, #884]
	str	r2, [r1, #116]
	ldr	r2, [sp, #880]
	str	r2, [r1, #120]
	ldr	r2, [sp, #876]
	str	r2, [r1, #124]
	ldr	r2, [sp, #932]
	str	r2, [r1, #68]
	ldr	r2, [sp, #928]
	str	r2, [r1, #72]
	ldr	r2, [sp, #924]
	str	r2, [r1, #76]
	ldr	r2, [sp, #920]
	str	r2, [r1, #80]
	ldr	r2, [sp, #916]
	str	r2, [r1, #84]
	ldr	r2, [sp, #912]
	str	r2, [r1, #88]
	ldr	r2, [sp, #908]
	str	r2, [r1, #92]
	ldr	r2, [sp, #904]
	str	r2, [r1, #96]
	ldr	r2, [sp, #968]
	str	r2, [r1, #36]
	ldr	r2, [sp, #964]
	str	r2, [r1, #40]
	ldr	r2, [sp, #960]
	str	r2, [r1, #44]
	ldr	r2, [sp, #956]
	str	r2, [r1, #48]
	ldr	r2, [sp, #952]
	str	r2, [r1, #52]
	ldr	r2, [sp, #948]
	str	r2, [r1, #56]
	ldr	r2, [sp, #944]
	str	r2, [r1, #60]
	ldr	r2, [sp, #940]
	str	r2, [r1, #64]
	ldr	r2, [sp, #1020]
	str	r2, [r1, #4]
	ldr	r2, [sp, #996]
	str	r2, [r1, #8]
	ldr	r2, [sp, #992]
	str	r2, [r1, #12]
	ldr	r2, [sp, #988]
	str	r2, [r1, #16]
	ldr	r2, [sp, #984]
	str	r2, [r1, #20]
	ldr	r2, [sp, #980]
	str	r2, [r1, #24]
	ldr	r2, [sp, #976]
	str	r2, [r1, #28]
	ldr	r2, [sp, #972]
	str	r2, [r1, #32]
	mov	r1, r3
	adds	r1, #128
	ldr	r2, [sp, #292]
	str	r2, [r1, #100]
	ldr	r2, [sp, #288]
	str	r2, [r1, #104]
	ldr	r2, [sp, #284]
	str	r2, [r1, #108]
	ldr	r2, [sp, #280]
	str	r2, [r1, #112]
	ldr	r2, [sp, #276]
	str	r2, [r1, #116]
	ldr	r2, [sp, #272]
	str	r2, [r1, #120]
	ldr	r2, [sp, #268]
	str	r2, [r1, #124]
	ldr	r2, [sp, #356]
	str	r2, [r1, #68]
	ldr	r2, [sp, #352]
	str	r2, [r1, #72]
	ldr	r2, [sp, #348]
	str	r2, [r1, #76]
	ldr	r2, [sp, #344]
	str	r2, [r1, #80]
	ldr	r2, [sp, #340]
	str	r2, [r1, #84]
	ldr	r2, [sp, #336]
	str	r2, [r1, #88]
	ldr	r2, [sp, #332]
	str	r2, [r1, #92]
	ldr	r2, [sp, #328]
	str	r2, [r1, #96]
	ldr	r2, [sp, #420]
	str	r2, [r1, #36]
	ldr	r2, [sp, #416]
	str	r2, [r1, #40]
	ldr	r2, [sp, #412]
	str	r2, [r1, #44]
	ldr	r2, [sp, #408]
	str	r2, [r1, #48]
	ldr	r2, [sp, #404]
	str	r2, [r1, #52]
	ldr	r2, [sp, #400]
	str	r2, [r1, #56]
	ldr	r2, [sp, #396]
	str	r2, [r1, #60]
	ldr	r2, [sp, #392]
	str	r2, [r1, #64]
	ldr	r2, [sp, #484]
	str	r2, [r1, #4]
	ldr	r2, [sp, #480]
	str	r2, [r1, #8]
	ldr	r2, [sp, #476]
	str	r2, [r1, #12]
	ldr	r2, [sp, #472]
	str	r2, [r1, #16]
	ldr	r2, [sp, #468]
	str	r2, [r1, #20]
	ldr	r2, [sp, #464]
	str	r2, [r1, #24]
	ldr	r2, [sp, #460]
	str	r2, [r1, #28]
	ldr	r2, [sp, #456]
	str	r2, [r1, #32]
	adds	r1, r3, r0
	movs	r0, #64
	str	r0, [r1, #4]
	str	r5, [r1, #8]
	str	r5, [r1, #12]
	str	r5, [r1, #16]
	str	r4, [sp, #1020]
	str	r0, [r4, #4]
	ldr	r0, .LCPI19_12
	add	r0, sp
	ldr	r0, [r0]
	str	r0, [r1, #24]
	str	r5, [r1, #28]
	str	r5, [r1, #32]
	str	r5, [r1, #36]
	ldr	r0, [sp, #1000]
	ldr	r2, .LCPI19_16
	add	r2, sp
	str	r0, [r2]
	ldr	r0, [sp, #1012]
	ldr	r2, .LCPI19_17
	add	r2, sp
	str	r0, [r2]
	ldr	r0, .LCPI19_15
	add	r0, sp
	ldr	r0, [r0]
	ldr	r2, .LCPI19_18
	add	r2, sp
	str	r0, [r2]
	ldr	r0, .LCPI19_14
	add	r0, sp
	ldr	r0, [r0]
	ldr	r2, .LCPI19_19
	add	r2, sp
	str	r0, [r2]
	ldr	r0, .LCPI19_13
	add	r0, sp
	ldr	r0, [r0]
	ldr	r2, .LCPI19_20
	add	r2, sp
	str	r0, [r2]
	ldr	r0, .LCPI19_11
	add	r0, sp
	ldr	r0, [r0]
	ldr	r2, .LCPI19_21
	add	r2, sp
	str	r0, [r2]
	ldr	r0, [sp, #524]
	ldr	r2, .LCPI19_22
	add	r2, sp
	str	r0, [r2]
	ldr	r0, [sp, #528]
	ldr	r2, .LCPI19_23
	add	r2, sp
	str	r0, [r2]
	ldr	r0, [sp, #532]
	ldr	r2, .LCPI19_24
	add	r2, sp
	str	r0, [r2]
	ldr	r0, [sp, #536]
	ldr	r2, .LCPI19_25
	add	r2, sp
	str	r0, [r2]
	ldr	r0, [sp, #572]
	ldr	r2, .LCPI19_26
	add	r2, sp
	str	r0, [r2]
	ldr	r0, [sp, #580]
	ldr	r2, .LCPI19_27
	add	r2, sp
	str	r0, [r2]
	ldr	r0, [sp, #584]
	ldr	r2, .LCPI19_28
	add	r2, sp
	str	r0, [r2]
	ldr	r0, [sp, #588]
	ldr	r2, .LCPI19_29
	add	r2, sp
	str	r0, [r2]
	ldr	r0, [sp, #592]
	ldr	r2, .LCPI19_30
	add	r2, sp
	str	r0, [r2]
	ldr	r0, [sp, #596]
	ldr	r2, .LCPI19_31
	add	r2, sp
	str	r0, [r2]
	ldr	r0, [sp, #600]
	ldr	r2, .LCPI19_32
	add	r2, sp
	str	r0, [r2]
	ldr	r0, [sp, #604]
	ldr	r2, .LCPI19_33
	add	r2, sp
	str	r0, [r2]
	ldr	r0, [sp, #640]
	ldr	r2, .LCPI19_34
	add	r2, sp
	str	r0, [r2]
	ldr	r0, [sp, #644]
	ldr	r2, .LCPI19_35
	add	r2, sp
	str	r0, [r2]
	ldr	r0, [sp, #648]
	ldr	r2, .LCPI19_36
	add	r2, sp
	str	r0, [r2]
	ldr	r0, [sp, #652]
	ldr	r2, .LCPI19_37
	add	r2, sp
	str	r0, [r2]
	ldr	r0, [sp, #656]
	ldr	r2, .LCPI19_38
	add	r2, sp
	str	r0, [r2]
	ldr	r0, [sp, #664]
	ldr	r2, .LCPI19_39
	add	r2, sp
	str	r0, [r2]
	ldr	r0, [sp, #672]
	ldr	r2, .LCPI19_40
	add	r2, sp
	str	r0, [r2]
	ldr	r0, [sp, #680]
	ldr	r2, .LCPI19_41
	add	r2, sp
	str	r0, [r2]
	ldr	r0, [sp, #688]
	ldr	r2, .LCPI19_42
	add	r2, sp
	str	r0, [r2]
	ldr	r0, [sp, #696]
	ldr	r2, .LCPI19_43
	add	r2, sp
	str	r0, [r2]
	ldr	r0, [sp, #704]
	ldr	r2, .LCPI19_44
	add	r2, sp
	str	r0, [r2]
	ldr	r0, [sp, #712]
	ldr	r2, .LCPI19_45
	add	r2, sp
	str	r0, [r2]
	ldr	r0, [sp, #716]
	ldr	r2, .LCPI19_46
	add	r2, sp
	str	r0, [r2]
	ldr	r0, [sp, #720]
	ldr	r2, .LCPI19_47
	add	r2, sp
	str	r0, [r2]
	ldr	r0, [sp, #724]
	ldr	r2, .LCPI19_48
	add	r2, sp
	str	r0, [r2]
	ldr	r0, [sp, #728]
	ldr	r2, .LCPI19_49
	add	r2, sp
	str	r0, [r2]
	ldr	r0, [sp, #760]
	ldr	r2, .LCPI19_50
	add	r2, sp
	str	r0, [r2]
	ldr	r0, [sp, #764]
	ldr	r2, .LCPI19_51
	add	r2, sp
	str	r0, [r2]
	ldr	r0, [sp, #768]
	ldr	r2, .LCPI19_52
	add	r2, sp
	str	r0, [r2]
	ldr	r0, [sp, #772]
	ldr	r2, .LCPI19_53
	add	r2, sp
	str	r0, [r2]
	str	r1, [sp, #1012]
	adds	r1, #24
	str	r1, [sp, #992]
	ldr	r0, .LCPI19_54
	add	r0, sp
	mov	r1, r0
	adds	r1, #60
	str	r1, [sp, #996]
	adds	r0, #92
	str	r0, [sp, #1000]
	ldr	r4, [sp, #1016]
.LBB19_10:
	adds	r2, r5, #1
	ldr	r0, [sp, #1020]
	str	r2, [r0]
	cmp	r5, #64
	bne	.LBB19_11
	b	.LBB19_18
.LBB19_11:
	ldr	r0, [r3]
	ldr	r1, [sp, #1012]
	ldr	r6, .LCPI19_14
	add	r6, sp
	str	r2, [r6]
	str	r2, [r1]
	movs	r1, #65
	lsls	r1, r1, #3
	ldr	r2, [r3, r1]
	adds	r1, r3, r1
	ldr	r1, [r1, #4]
	ldr	r6, .LCPI19_11
	add	r6, sp
	str	r3, [r6]
	ldr	r3, [r3, #4]
	ldr	r6, .LCPI19_55
	add	r6, sp
	str	r1, [r6]
	ldr	r1, .LCPI19_56
	add	r1, sp
	str	r2, [r1]
	ldr	r1, .LCPI19_57
	add	r1, sp
	str	r3, [r1]
	ldr	r1, .LCPI19_58
	add	r1, sp
	str	r0, [r1]
	str	r5, [r4]
	cmp	r5, #9
	ldr	r0, .LCPI19_12
	add	r0, sp
	ldr	r0, [r0]
	bgt	.LBB19_13
	movs	r0, #2
.LBB19_13:
	str	r0, [r4, #28]
	ldr	r0, .LCPI19_13
	add	r0, sp
	str	r5, [r0]
	cmp	r5, #9
	ldr	r0, .LCPI19_0
	ldr	r5, .LCPI19_10
	add	r5, sp
	ldr	r5, [r5]
	bgt	.LBB19_15
	ldr	r0, .LCPI19_1
.LBB19_15:
	str	r0, [r4, #24]
	movs	r6, #0
	ldr	r0, .LCPI19_2
	str	r0, [r4, #96]
	ldr	r0, .LCPI19_12
	add	r0, sp
	ldr	r0, [r0]
	str	r0, [r4, #100]
	ldr	r0, .LCPI19_3
	str	r0, [r4, #104]
	str	r6, [r4, #108]
	str	r6, [r4, #112]
	ldr	r1, .LCPI19_54
	add	r1, sp
	mov	r0, r5
	bl	_ZN4core3fmt9Formatter9write_fmt17h9c22fb615787d62aE
	cmp	r0, #0
	beq	.LBB19_16
	b	.LBB19_19
.LBB19_16:
	ldr	r0, .LCPI19_4
	str	r0, [r4, #76]
	ldr	r0, .LCPI19_59
	add	r0, sp
	str	r0, [r4, #72]
	ldr	r0, .LCPI19_5
	str	r0, [r4, #68]
	ldr	r0, .LCPI19_60
	add	r0, sp
	str	r0, [r4, #64]
	ldr	r0, .LCPI19_6
	str	r0, [r4, #60]
	ldr	r0, .LCPI19_9
	add	r0, sp
	str	r0, [r4, #56]
	mov	r3, r4
	adds	r3, #8
	ldm	r3, {r0, r1, r2, r3}
	str	r1, [r4, #92]
	str	r0, [r4, #88]
	str	r3, [r4, #84]
	str	r2, [r4, #80]
	ldr	r0, .LCPI19_54
	add	r0, sp
	ldr	r1, .LCPI19_15
	add	r1, sp
	str	r0, [r1]
	ldr	r5, [sp, #1004]
	strb	r5, [r0, #28]
	ldr	r0, [sp, #996]
	strb	r5, [r0]
	str	r5, [sp]
	ldr	r0, .LCPI19_61
	add	r0, sp
	str	r6, [r0]
	movs	r1, #1
	ldr	r0, .LCPI19_62
	add	r0, sp
	str	r1, [r0]
	movs	r1, #32
	ldr	r0, .LCPI19_63
	add	r0, sp
	str	r1, [r0]
	ldr	r0, [sp, #1008]
	ldr	r2, .LCPI19_64
	add	r2, sp
	str	r0, [r2]
	movs	r2, #2
	ldr	r3, .LCPI19_65
	add	r3, sp
	str	r2, [r3]
	ldr	r3, .LCPI19_66
	add	r3, sp
	str	r2, [r3]
	str	r2, [r4, #104]
	mov	r3, r4
	adds	r3, #108
	stm	r3!, {r0, r1, r6}
	str	r6, [r4, #120]
	str	r2, [r4, #96]
	movs	r3, #8
	ldr	r5, .LCPI19_67
	add	r5, sp
	str	r3, [r5]
	ldr	r5, [sp]
	ldr	r3, .LCPI19_68
	add	r3, sp
	str	r2, [r3]
	ldr	r3, .LCPI19_69
	add	r3, sp
	str	r1, [r3]
	ldr	r1, .LCPI19_70
	add	r1, sp
	str	r0, [r1]
	ldr	r0, .LCPI19_71
	add	r0, sp
	str	r6, [r0]
	ldr	r0, .LCPI19_72
	add	r0, sp
	str	r2, [r0]
	ldr	r0, [sp, #1000]
	strb	r5, [r0]
	ldr	r0, .LCPI19_7
	str	r0, [r4, #32]
	str	r5, [r4, #36]
	ldr	r0, .LCPI19_15
	add	r0, sp
	ldr	r0, [r0]
	str	r0, [r4, #48]
	str	r5, [r4, #52]
	ldr	r0, .LCPI19_73
	add	r0, sp
	str	r0, [r4, #40]
	str	r5, [r4, #44]
	ldr	r1, .LCPI19_74
	add	r1, sp
	ldr	r0, .LCPI19_10
	add	r0, sp
	ldr	r0, [r0]
	bl	_ZN4core3fmt9Formatter9write_fmt17h9c22fb615787d62aE
	cmp	r0, #0
	bne	.LBB19_19
	ldr	r0, .LCPI19_13
	add	r0, sp
	ldr	r0, [r0]
	adds	r0, r0, #2
	ldr	r1, [sp, #992]
	str	r0, [r1]
	ldr	r3, .LCPI19_11
	add	r3, sp
	ldr	r3, [r3]
	adds	r3, #8
	ldr	r5, .LCPI19_14
	add	r5, sp
	ldr	r5, [r5]
	cmp	r5, #64
	beq	.LBB19_18
	b	.LBB19_10
.LBB19_18:
	movs	r0, #0
	ldr	r1, .LCPI19_49
	add	r1, sp
	str	r0, [r1]
	movs	r1, #1
	ldr	r2, .LCPI19_52
	add	r2, sp
	str	r1, [r2]
	ldr	r1, .LCPI19_2
	ldr	r2, .LCPI19_53
	add	r2, sp
	str	r1, [r2]
	ldr	r1, .LCPI19_50
	add	r1, sp
	str	r0, [r1]
	ldr	r0, .LCPI19_3
	ldr	r1, .LCPI19_51
	add	r1, sp
	str	r0, [r1]
	add	r1, sp, #1020
	adds	r1, #28
	ldr	r0, .LCPI19_10
	add	r0, sp
	ldr	r0, [r0]
	bl	_ZN4core3fmt9Formatter9write_fmt17h9c22fb615787d62aE
	b	.LBB19_20
.LBB19_19:
	movs	r0, #1
.LBB19_20:
	subs	r4, r7, #7
	subs	r4, #5
	mov	sp, r4
	pop	{r4, r5, r6, r7, pc}
	.p2align	2
.LCPI19_0:
	.long	.L__unnamed_5
.LCPI19_1:
	.long	.L__unnamed_6
.LCPI19_2:
	.long	.L__unnamed_7
.LCPI19_3:
	.long	.L__unnamed_8
.LCPI19_4:
	.long	_ZN4core3fmt3num52_$LT$impl$u20$core..fmt..Binary$u20$for$u20$u128$GT$3fmt17h00875a176c93f084E
.LCPI19_5:
	.long	_ZN44_$LT$$RF$T$u20$as$u20$core..fmt..Display$GT$3fmt17h850a63915c02ea75E
.LCPI19_6:
	.long	_ZN4core3fmt3num3imp52_$LT$impl$u20$core..fmt..Display$u20$for$u20$i32$GT$3fmt17h5e939019c27c2a02E
.LCPI19_7:
	.long	.L__unnamed_9
.LCPI19_9:
	.long	2120
.LCPI19_10:
	.long	1040
.LCPI19_11:
	.long	1036
.LCPI19_12:
	.long	1044
.LCPI19_13:
	.long	1032
.LCPI19_14:
	.long	1028
.LCPI19_15:
	.long	1024
.LCPI19_16:
	.long	1952
.LCPI19_17:
	.long	1824
.LCPI19_18:
	.long	1696
.LCPI19_19:
	.long	1432
.LCPI19_20:
	.long	1304
.LCPI19_21:
	.long	1176
.LCPI19_22:
	.long	1172
.LCPI19_23:
	.long	1168
.LCPI19_24:
	.long	1164
.LCPI19_25:
	.long	1160
.LCPI19_26:
	.long	1156
.LCPI19_27:
	.long	1152
.LCPI19_28:
	.long	1148
.LCPI19_29:
	.long	1144
.LCPI19_30:
	.long	1140
.LCPI19_31:
	.long	1136
.LCPI19_32:
	.long	1132
.LCPI19_33:
	.long	1128
.LCPI19_34:
	.long	1124
.LCPI19_35:
	.long	1120
.LCPI19_36:
	.long	1116
.LCPI19_37:
	.long	1112
.LCPI19_38:
	.long	1108
.LCPI19_39:
	.long	1104
.LCPI19_40:
	.long	1100
.LCPI19_41:
	.long	1096
.LCPI19_42:
	.long	1092
.LCPI19_43:
	.long	1088
.LCPI19_44:
	.long	1084
.LCPI19_45:
	.long	1080
.LCPI19_46:
	.long	1076
.LCPI19_47:
	.long	1072
.LCPI19_48:
	.long	1068
.LCPI19_49:
	.long	1064
.LCPI19_50:
	.long	1060
.LCPI19_51:
	.long	1056
.LCPI19_52:
	.long	1052
.LCPI19_53:
	.long	1048
.LCPI19_54:
	.long	2216
.LCPI19_55:
	.long	2140
.LCPI19_56:
	.long	2136
.LCPI19_57:
	.long	2132
.LCPI19_58:
	.long	2128
.LCPI19_59:
	.long	2200
.LCPI19_60:
	.long	2144
.LCPI19_61:
	.long	2272
.LCPI19_62:
	.long	2268
.LCPI19_63:
	.long	2264
.LCPI19_64:
	.long	2260
.LCPI19_65:
	.long	2256
.LCPI19_66:
	.long	2248
.LCPI19_67:
	.long	2304
.LCPI19_68:
	.long	2300
.LCPI19_69:
	.long	2296
.LCPI19_70:
	.long	2292
.LCPI19_71:
	.long	2288
.LCPI19_72:
	.long	2280
.LCPI19_73:
	.long	2176
.LCPI19_74:
	.long	2152
.Lfunc_end19:
	.size	_ZN64_$LT$lib..newspeed..DisplayArr$u20$as$u20$core..fmt..Display$GT$3fmt17hb383e2b932dd53e7E, .Lfunc_end19-_ZN64_$LT$lib..newspeed..DisplayArr$u20$as$u20$core..fmt..Display$GT$3fmt17hb383e2b932dd53e7E
	.cantunwind
	.fnend

	.section	".text._ZN62_$LT$lib..newspeed..DisplayArr$u20$as$u20$core..fmt..Debug$GT$3fmt17h3bfa6ceda0b74198E","ax",%progbits
	.globl	_ZN62_$LT$lib..newspeed..DisplayArr$u20$as$u20$core..fmt..Debug$GT$3fmt17h3bfa6ceda0b74198E
	.p2align	2
	.type	_ZN62_$LT$lib..newspeed..DisplayArr$u20$as$u20$core..fmt..Debug$GT$3fmt17h3bfa6ceda0b74198E,%function
	.code	16
	.thumb_func
_ZN62_$LT$lib..newspeed..DisplayArr$u20$as$u20$core..fmt..Debug$GT$3fmt17h3bfa6ceda0b74198E:
	.fnstart
	.save	{r4, r5, r6, r7, lr}
	push	{r4, r5, r6, r7, lr}
	.setfp	r7, sp, #12
	add	r7, sp, #12
	ldr	r6, .LCPI20_62
	.pad	#2220
	add	sp, r6
	ldr	r2, .LCPI20_63
	add	r2, sp
	str	r2, [sp, #1020]
	ldr	r2, .LCPI20_64
	add	r2, sp
	str	r1, [r2]
	movs	r1, #128
	ldr	r1, [r0, r1]
	ldr	r2, .LCPI20_65
	add	r2, sp
	str	r1, [r2]
	movs	r5, #1
	lsls	r2, r5, #8
	ldr	r1, .LCPI20_66
	add	r1, sp
	str	r5, [r1]
	ldr	r1, [r0, r2]
	mov	r6, r2
	str	r2, [sp, #940]
	ldr	r2, .LCPI20_67
	add	r2, sp
	str	r1, [r2]
	movs	r2, #3
	lsls	r4, r2, #7
	ldr	r1, [r0, r4]
	str	r4, [sp, #812]
	ldr	r3, .LCPI20_68
	add	r3, sp
	str	r1, [r3]
	movs	r1, #5
	lsls	r1, r1, #7
	str	r1, [sp, #772]
	ldr	r3, [r0, r1]
	str	r3, [sp, #1016]
	str	r2, [sp, #1012]
	lsls	r2, r2, #8
	ldr	r3, [r0, r2]
	str	r3, [sp, #1008]
	movs	r3, #7
	lsls	r1, r3, #7
	str	r1, [sp, #776]
	ldr	r3, [r0, r1]
	str	r3, [sp, #1004]
	adds	r3, r0, r6
	ldr	r6, [r3, #4]
	ldr	r1, .LCPI20_69
	add	r1, sp
	str	r6, [r1]
	ldr	r6, [r3, #8]
	str	r6, [sp, #1000]
	ldr	r6, [r3, #12]
	str	r6, [sp, #996]
	ldr	r6, [r3, #16]
	str	r6, [sp, #992]
	ldr	r6, [r3, #20]
	str	r6, [sp, #988]
	ldr	r6, [r3, #24]
	str	r6, [sp, #984]
	ldr	r6, [r3, #28]
	str	r6, [sp, #980]
	ldr	r6, [r3, #32]
	str	r6, [sp, #976]
	ldr	r6, [r3, #36]
	str	r6, [sp, #972]
	ldr	r6, [r3, #40]
	str	r6, [sp, #968]
	ldr	r6, [r3, #44]
	str	r6, [sp, #964]
	ldr	r6, [r3, #48]
	str	r6, [sp, #960]
	ldr	r6, [r3, #52]
	str	r6, [sp, #956]
	ldr	r6, [r3, #56]
	str	r6, [sp, #952]
	ldr	r6, [r3, #60]
	str	r6, [sp, #948]
	ldr	r6, [r3, #64]
	str	r6, [sp, #944]
	ldr	r6, [r3, #68]
	str	r6, [sp, #936]
	ldr	r6, [r3, #72]
	str	r6, [sp, #932]
	ldr	r6, [r3, #76]
	str	r6, [sp, #928]
	ldr	r6, [r3, #80]
	str	r6, [sp, #924]
	ldr	r6, [r3, #84]
	str	r6, [sp, #920]
	ldr	r6, [r3, #88]
	str	r6, [sp, #916]
	ldr	r6, [r3, #92]
	str	r6, [sp, #912]
	ldr	r6, [r3, #96]
	str	r6, [sp, #908]
	ldr	r6, [r3, #100]
	str	r6, [sp, #904]
	ldr	r6, [r3, #104]
	str	r6, [sp, #900]
	ldr	r6, [r3, #108]
	str	r6, [sp, #896]
	ldr	r6, [r3, #112]
	str	r6, [sp, #892]
	ldr	r6, [r3, #116]
	str	r6, [sp, #888]
	ldr	r6, [r3, #120]
	str	r6, [sp, #884]
	ldr	r3, [r3, #124]
	str	r3, [sp, #880]
	adds	r3, r0, r4
	ldr	r4, [r3, #4]
	str	r4, [sp, #876]
	ldr	r4, [r3, #8]
	str	r4, [sp, #872]
	ldr	r4, [r3, #12]
	str	r4, [sp, #868]
	ldr	r4, [r3, #16]
	str	r4, [sp, #864]
	ldr	r4, [r3, #20]
	str	r4, [sp, #860]
	ldr	r4, [r3, #24]
	str	r4, [sp, #856]
	ldr	r4, [r3, #28]
	str	r4, [sp, #852]
	ldr	r4, [r3, #32]
	str	r4, [sp, #848]
	ldr	r4, [r3, #36]
	str	r4, [sp, #844]
	ldr	r4, [r3, #40]
	str	r4, [sp, #840]
	ldr	r4, [r3, #44]
	str	r4, [sp, #836]
	ldr	r4, [r3, #48]
	str	r4, [sp, #832]
	ldr	r4, [r3, #52]
	str	r4, [sp, #828]
	ldr	r4, [r3, #56]
	str	r4, [sp, #824]
	ldr	r4, [r3, #60]
	str	r4, [sp, #820]
	ldr	r4, [r3, #64]
	str	r4, [sp, #816]
	ldr	r4, [r3, #68]
	str	r4, [sp, #808]
	ldr	r4, [r3, #72]
	str	r4, [sp, #804]
	ldr	r4, [r3, #76]
	str	r4, [sp, #800]
	ldr	r4, [r3, #80]
	str	r4, [sp, #796]
	ldr	r4, [r3, #84]
	str	r4, [sp, #792]
	ldr	r4, [r3, #88]
	str	r4, [sp, #788]
	ldr	r4, [r3, #92]
	str	r4, [sp, #784]
	ldr	r4, [r3, #96]
	str	r4, [sp, #780]
	ldr	r4, [r3, #100]
	str	r4, [sp, #760]
	ldr	r4, [r3, #104]
	str	r4, [sp, #756]
	ldr	r4, [r3, #108]
	str	r4, [sp, #752]
	ldr	r4, [r3, #112]
	str	r4, [sp, #748]
	ldr	r4, [r3, #116]
	str	r4, [sp, #744]
	ldr	r4, [r3, #120]
	str	r4, [sp, #740]
	ldr	r3, [r3, #124]
	str	r3, [sp, #736]
	lsls	r4, r5, #9
	str	r4, [sp, #580]
	ldr	r3, [r0, r4]
	str	r3, [sp, #712]
	adds	r3, r0, r4
	ldr	r4, [r3, #4]
	str	r4, [sp, #704]
	ldr	r4, [r3, #8]
	str	r4, [sp, #696]
	ldr	r4, [r3, #12]
	str	r4, [sp, #688]
	ldr	r4, [r3, #16]
	str	r4, [sp, #680]
	ldr	r4, [r3, #20]
	str	r4, [sp, #672]
	ldr	r4, [r3, #24]
	str	r4, [sp, #664]
	ldr	r4, [r3, #28]
	str	r4, [sp, #640]
	ldr	r4, [r3, #32]
	str	r4, [sp, #636]
	ldr	r4, [r3, #36]
	str	r4, [sp, #632]
	ldr	r4, [r3, #40]
	str	r4, [sp, #628]
	ldr	r4, [r3, #44]
	str	r4, [sp, #624]
	ldr	r4, [r3, #48]
	str	r4, [sp, #620]
	ldr	r4, [r3, #52]
	str	r4, [sp, #616]
	ldr	r4, [r3, #56]
	str	r4, [sp, #612]
	ldr	r4, [r3, #60]
	str	r4, [sp, #572]
	ldr	r4, [r3, #64]
	str	r4, [sp, #568]
	ldr	r4, [r3, #68]
	str	r4, [sp, #564]
	ldr	r4, [r3, #72]
	str	r4, [sp, #560]
	ldr	r4, [r3, #76]
	str	r4, [sp, #556]
	ldr	r4, [r3, #80]
	str	r4, [sp, #552]
	ldr	r4, [r3, #84]
	str	r4, [sp, #548]
	ldr	r4, [r3, #88]
	str	r4, [sp, #544]
	ldr	r4, [r3, #92]
	str	r4, [sp, #524]
	ldr	r4, [r3, #96]
	str	r4, [sp, #520]
	ldr	r4, [r3, #100]
	str	r4, [sp, #516]
	ldr	r4, [r3, #104]
	str	r4, [sp, #512]
	ldr	r4, [r3, #108]
	str	r4, [sp, #508]
	ldr	r4, [r3, #112]
	str	r4, [sp, #504]
	ldr	r4, [r3, #116]
	str	r4, [sp, #500]
	ldr	r4, [r3, #120]
	str	r4, [sp, #496]
	ldr	r3, [r3, #124]
	str	r3, [sp, #492]
	ldr	r1, [sp, #772]
	adds	r1, r0, r1
	ldr	r3, [r1, #4]
	str	r3, [sp, #456]
	ldr	r3, [r1, #8]
	str	r3, [sp, #452]
	ldr	r3, [r1, #12]
	str	r3, [sp, #448]
	ldr	r3, [r1, #16]
	str	r3, [sp, #444]
	ldr	r3, [r1, #20]
	str	r3, [sp, #440]
	ldr	r3, [r1, #24]
	str	r3, [sp, #436]
	ldr	r3, [r1, #28]
	str	r3, [sp, #432]
	ldr	r3, [r1, #32]
	str	r3, [sp, #428]
	ldr	r3, [r1, #36]
	str	r3, [sp, #392]
	ldr	r3, [r1, #40]
	str	r3, [sp, #388]
	ldr	r3, [r1, #44]
	str	r3, [sp, #384]
	ldr	r3, [r1, #48]
	str	r3, [sp, #380]
	ldr	r3, [r1, #52]
	str	r3, [sp, #376]
	ldr	r3, [r1, #56]
	str	r3, [sp, #372]
	ldr	r3, [r1, #60]
	str	r3, [sp, #368]
	ldr	r3, [r1, #64]
	str	r3, [sp, #364]
	ldr	r3, [r1, #68]
	str	r3, [sp, #324]
	ldr	r3, [r1, #72]
	str	r3, [sp, #320]
	ldr	r3, [r1, #76]
	str	r3, [sp, #316]
	ldr	r3, [r1, #80]
	str	r3, [sp, #312]
	ldr	r3, [r1, #84]
	str	r3, [sp, #308]
	ldr	r3, [r1, #88]
	str	r3, [sp, #304]
	ldr	r3, [r1, #92]
	str	r3, [sp, #300]
	ldr	r3, [r1, #96]
	str	r3, [sp, #296]
	ldr	r3, [r1, #100]
	str	r3, [sp, #264]
	ldr	r3, [r1, #104]
	str	r3, [sp, #260]
	ldr	r3, [r1, #108]
	str	r3, [sp, #256]
	ldr	r3, [r1, #112]
	str	r3, [sp, #252]
	ldr	r3, [r1, #116]
	str	r3, [sp, #248]
	ldr	r3, [r1, #120]
	str	r3, [sp, #244]
	ldr	r1, [r1, #124]
	str	r1, [sp, #240]
	adds	r1, r0, r2
	ldr	r2, [r1, #4]
	str	r2, [sp, #236]
	ldr	r2, [r1, #8]
	str	r2, [sp, #232]
	ldr	r2, [r1, #12]
	str	r2, [sp, #228]
	ldr	r2, [r1, #16]
	str	r2, [sp, #224]
	ldr	r2, [r1, #20]
	str	r2, [sp, #220]
	ldr	r2, [r1, #24]
	str	r2, [sp, #216]
	ldr	r2, [r1, #28]
	str	r2, [sp, #212]
	ldr	r2, [r1, #32]
	str	r2, [sp, #208]
	ldr	r2, [r1, #36]
	str	r2, [sp, #204]
	ldr	r2, [r1, #40]
	str	r2, [sp, #200]
	ldr	r2, [r1, #44]
	str	r2, [sp, #196]
	ldr	r2, [r1, #48]
	str	r2, [sp, #192]
	ldr	r2, [r1, #52]
	str	r2, [sp, #188]
	ldr	r2, [r1, #56]
	str	r2, [sp, #184]
	ldr	r2, [r1, #60]
	str	r2, [sp, #180]
	ldr	r2, [r1, #64]
	str	r2, [sp, #176]
	ldr	r2, [r1, #68]
	str	r2, [sp, #172]
	ldr	r2, [r1, #72]
	str	r2, [sp, #168]
	ldr	r2, [r1, #76]
	str	r2, [sp, #164]
	ldr	r2, [r1, #80]
	str	r2, [sp, #160]
	ldr	r2, [r1, #84]
	str	r2, [sp, #156]
	ldr	r2, [r1, #88]
	str	r2, [sp, #152]
	ldr	r2, [r1, #92]
	str	r2, [sp, #148]
	ldr	r2, [r1, #96]
	str	r2, [sp, #144]
	ldr	r2, [r1, #100]
	str	r2, [sp, #140]
	ldr	r2, [r1, #104]
	str	r2, [sp, #136]
	ldr	r2, [r1, #108]
	str	r2, [sp, #132]
	ldr	r2, [r1, #112]
	str	r2, [sp, #128]
	ldr	r2, [r1, #116]
	str	r2, [sp, #124]
	ldr	r2, [r1, #120]
	str	r2, [sp, #120]
	ldr	r1, [r1, #124]
	str	r1, [sp, #116]
	ldr	r1, [sp, #776]
	adds	r4, r0, r1
	ldr	r1, [r4, #4]
	str	r1, [sp, #112]
	ldr	r1, [r4, #8]
	str	r1, [sp, #108]
	ldr	r1, [r4, #12]
	str	r1, [sp, #104]
	ldr	r1, [r4, #16]
	str	r1, [sp, #100]
	ldr	r1, [r4, #20]
	str	r1, [sp, #96]
	ldr	r1, [r4, #24]
	str	r1, [sp, #92]
	ldr	r1, [r4, #28]
	str	r1, [sp, #88]
	ldr	r1, [r4, #32]
	str	r1, [sp, #84]
	ldr	r1, [r4, #36]
	str	r1, [sp, #80]
	ldr	r1, [r4, #40]
	str	r1, [sp, #76]
	ldr	r1, [r4, #44]
	str	r1, [sp, #72]
	ldr	r1, [r4, #48]
	str	r1, [sp, #68]
	ldr	r1, [r4, #52]
	str	r1, [sp, #64]
	ldr	r1, [r4, #56]
	str	r1, [sp, #60]
	ldr	r1, [r4, #60]
	str	r1, [sp, #56]
	ldr	r1, [r4, #64]
	str	r1, [sp, #52]
	ldr	r1, [r4, #68]
	str	r1, [sp, #48]
	ldr	r1, [r4, #72]
	str	r1, [sp, #44]
	ldr	r1, [r4, #76]
	str	r1, [sp, #40]
	ldr	r1, [r4, #80]
	str	r1, [sp, #36]
	ldr	r1, [r4, #84]
	str	r1, [sp, #32]
	ldr	r1, [r4, #88]
	str	r1, [sp, #28]
	ldr	r1, [r4, #92]
	str	r1, [sp, #24]
	ldr	r1, [r4, #96]
	str	r1, [sp, #20]
	ldr	r6, [r4, #100]
	ldr	r1, [r4, #104]
	ldr	r5, [r4, #108]
	ldr	r3, [r4, #112]
	ldr	r2, [r4, #116]
	str	r2, [sp, #16]
	ldr	r2, [r4, #120]
	str	r2, [sp, #12]
	ldr	r2, [r4, #124]
	str	r2, [sp, #8]
	ldr	r2, [r0]
	str	r2, [sp, #776]
	ldr	r2, [r0, #4]
	str	r2, [sp, #772]
	ldr	r2, [r0, #8]
	str	r2, [sp, #768]
	ldr	r2, [r0, #12]
	str	r2, [sp, #764]
	ldr	r2, [r0, #16]
	str	r2, [sp, #732]
	ldr	r2, [r0, #20]
	str	r2, [sp, #728]
	ldr	r2, [r0, #24]
	str	r2, [sp, #724]
	ldr	r2, [r0, #28]
	str	r2, [sp, #720]
	ldr	r2, [r0, #32]
	str	r2, [sp, #716]
	ldr	r2, [r0, #36]
	str	r2, [sp, #708]
	ldr	r2, [r0, #40]
	str	r2, [sp, #700]
	ldr	r2, [r0, #44]
	str	r2, [sp, #692]
	ldr	r2, [r0, #48]
	str	r2, [sp, #684]
	ldr	r2, [r0, #52]
	str	r2, [sp, #676]
	ldr	r2, [r0, #56]
	str	r2, [sp, #668]
	ldr	r2, [r0, #60]
	str	r2, [sp, #660]
	ldr	r2, [r0, #64]
	str	r2, [sp, #656]
	ldr	r2, [r0, #68]
	str	r2, [sp, #652]
	ldr	r2, [r0, #72]
	str	r2, [sp, #648]
	ldr	r2, [r0, #76]
	str	r2, [sp, #644]
	ldr	r2, [r0, #80]
	str	r2, [sp, #608]
	ldr	r2, [r0, #84]
	str	r2, [sp, #604]
	ldr	r2, [r0, #88]
	str	r2, [sp, #600]
	ldr	r2, [r0, #92]
	str	r2, [sp, #596]
	ldr	r2, [r0, #96]
	str	r2, [sp, #592]
	ldr	r2, [r0, #100]
	str	r2, [sp, #588]
	ldr	r2, [r0, #104]
	str	r2, [sp, #584]
	ldr	r2, [r0, #108]
	str	r2, [sp, #576]
	ldr	r2, [r0, #112]
	str	r2, [sp, #540]
	ldr	r2, [r0, #116]
	str	r2, [sp, #536]
	ldr	r2, [r0, #120]
	str	r2, [sp, #532]
	ldr	r2, [r0, #124]
	str	r2, [sp, #528]
	adds	r0, #128
	ldr	r2, [r0, #4]
	str	r2, [sp, #488]
	ldr	r2, [r0, #8]
	str	r2, [sp, #484]
	ldr	r2, [r0, #12]
	str	r2, [sp, #480]
	ldr	r2, [r0, #16]
	str	r2, [sp, #476]
	ldr	r2, [r0, #20]
	str	r2, [sp, #472]
	ldr	r2, [r0, #24]
	str	r2, [sp, #468]
	b	.LBB20_9
	.p2align	2
.LCPI20_62:
	.long	4294965076
	.p2align	2
.LCPI20_63:
	.long	2120
	.p2align	2
.LCPI20_64:
	.long	1028
	.p2align	2
.LCPI20_65:
	.long	1040
	.p2align	2
.LCPI20_66:
	.long	1044
	.p2align	2
.LCPI20_67:
	.long	1036
	.p2align	2
.LCPI20_68:
	.long	1032
	.p2align	2
.LCPI20_69:
	.long	1024
	.p2align	1
.LBB20_9:
	ldr	r2, [r0, #28]
	str	r2, [sp, #464]
	ldr	r2, [r0, #32]
	str	r2, [sp, #460]
	ldr	r2, [r0, #36]
	str	r2, [sp, #424]
	ldr	r2, [r0, #40]
	str	r2, [sp, #420]
	ldr	r2, [r0, #44]
	str	r2, [sp, #416]
	ldr	r2, [r0, #48]
	str	r2, [sp, #412]
	ldr	r2, [r0, #52]
	str	r2, [sp, #408]
	ldr	r2, [r0, #56]
	str	r2, [sp, #404]
	ldr	r2, [r0, #60]
	str	r2, [sp, #400]
	ldr	r2, [r0, #64]
	str	r2, [sp, #396]
	ldr	r2, [r0, #68]
	str	r2, [sp, #356]
	ldr	r2, [r0, #72]
	str	r2, [sp, #352]
	ldr	r2, [r0, #76]
	str	r2, [sp, #348]
	ldr	r2, [r0, #80]
	str	r2, [sp, #344]
	ldr	r2, [r0, #84]
	str	r2, [sp, #340]
	ldr	r2, [r0, #88]
	str	r2, [sp, #336]
	ldr	r2, [r0, #92]
	str	r2, [sp, #332]
	ldr	r2, [r0, #96]
	str	r2, [sp, #328]
	ldr	r2, [r0, #100]
	str	r2, [sp, #292]
	ldr	r2, [r0, #104]
	str	r2, [sp, #288]
	ldr	r2, [r0, #108]
	str	r2, [sp, #284]
	ldr	r2, [r0, #112]
	str	r2, [sp, #280]
	ldr	r2, [r0, #116]
	str	r2, [sp, #276]
	ldr	r2, [r0, #120]
	str	r2, [sp, #272]
	ldr	r0, [r0, #124]
	str	r0, [sp, #268]
	movs	r0, #129
	lsls	r0, r0, #3
	str	r0, [sp, #360]
	add	r4, sp, #1020
	adds	r4, #28
	movs	r2, #0
	str	r2, [r4, r0]
	movs	r0, #113
	lsls	r0, r0, #3
	adds	r0, r4, r0
	str	r6, [r0, #100]
	str	r1, [r0, #104]
	str	r5, [r0, #108]
	str	r3, [r0, #112]
	ldr	r1, [sp, #16]
	str	r1, [r0, #116]
	ldr	r1, [sp, #12]
	str	r1, [r0, #120]
	ldr	r1, [sp, #8]
	str	r1, [r0, #124]
	ldr	r1, [sp, #48]
	str	r1, [r0, #68]
	ldr	r1, [sp, #44]
	str	r1, [r0, #72]
	ldr	r1, [sp, #40]
	str	r1, [r0, #76]
	ldr	r1, [sp, #36]
	str	r1, [r0, #80]
	ldr	r1, [sp, #32]
	str	r1, [r0, #84]
	ldr	r1, [sp, #28]
	str	r1, [r0, #88]
	ldr	r1, [sp, #24]
	str	r1, [r0, #92]
	ldr	r1, [sp, #20]
	str	r1, [r0, #96]
	ldr	r1, [sp, #80]
	str	r1, [r0, #36]
	ldr	r1, [sp, #76]
	str	r1, [r0, #40]
	ldr	r1, [sp, #72]
	str	r1, [r0, #44]
	ldr	r1, [sp, #68]
	str	r1, [r0, #48]
	ldr	r1, [sp, #64]
	str	r1, [r0, #52]
	ldr	r1, [sp, #60]
	str	r1, [r0, #56]
	ldr	r1, [sp, #56]
	str	r1, [r0, #60]
	ldr	r1, [sp, #52]
	str	r1, [r0, #64]
	ldr	r1, [sp, #112]
	str	r1, [r0, #4]
	ldr	r1, [sp, #108]
	str	r1, [r0, #8]
	ldr	r1, [sp, #104]
	str	r1, [r0, #12]
	ldr	r1, [sp, #100]
	str	r1, [r0, #16]
	ldr	r1, [sp, #96]
	str	r1, [r0, #20]
	ldr	r1, [sp, #92]
	str	r1, [r0, #24]
	ldr	r1, [sp, #88]
	str	r1, [r0, #28]
	ldr	r1, [sp, #84]
	str	r1, [r0, #32]
	movs	r0, #97
	lsls	r0, r0, #3
	adds	r0, r4, r0
	ldr	r1, [sp, #140]
	str	r1, [r0, #100]
	ldr	r1, [sp, #136]
	str	r1, [r0, #104]
	ldr	r1, [sp, #132]
	str	r1, [r0, #108]
	ldr	r1, [sp, #128]
	str	r1, [r0, #112]
	ldr	r1, [sp, #124]
	str	r1, [r0, #116]
	ldr	r1, [sp, #120]
	str	r1, [r0, #120]
	ldr	r1, [sp, #116]
	str	r1, [r0, #124]
	ldr	r1, [sp, #172]
	str	r1, [r0, #68]
	ldr	r1, [sp, #168]
	str	r1, [r0, #72]
	ldr	r1, [sp, #164]
	str	r1, [r0, #76]
	ldr	r1, [sp, #160]
	str	r1, [r0, #80]
	ldr	r1, [sp, #156]
	str	r1, [r0, #84]
	ldr	r1, [sp, #152]
	str	r1, [r0, #88]
	ldr	r1, [sp, #148]
	str	r1, [r0, #92]
	ldr	r1, [sp, #144]
	str	r1, [r0, #96]
	ldr	r1, [sp, #204]
	str	r1, [r0, #36]
	ldr	r1, [sp, #200]
	str	r1, [r0, #40]
	ldr	r1, [sp, #196]
	str	r1, [r0, #44]
	ldr	r1, [sp, #192]
	str	r1, [r0, #48]
	ldr	r1, [sp, #188]
	str	r1, [r0, #52]
	ldr	r1, [sp, #184]
	str	r1, [r0, #56]
	ldr	r1, [sp, #180]
	str	r1, [r0, #60]
	ldr	r1, [sp, #176]
	str	r1, [r0, #64]
	ldr	r1, [sp, #236]
	str	r1, [r0, #4]
	ldr	r1, [sp, #232]
	str	r1, [r0, #8]
	ldr	r1, [sp, #228]
	str	r1, [r0, #12]
	ldr	r1, [sp, #224]
	str	r1, [r0, #16]
	ldr	r1, [sp, #220]
	str	r1, [r0, #20]
	ldr	r1, [sp, #216]
	str	r1, [r0, #24]
	ldr	r1, [sp, #212]
	str	r1, [r0, #28]
	ldr	r1, [sp, #208]
	str	r1, [r0, #32]
	movs	r0, #81
	lsls	r0, r0, #3
	adds	r0, r4, r0
	ldr	r1, [sp, #264]
	str	r1, [r0, #100]
	ldr	r1, [sp, #260]
	str	r1, [r0, #104]
	ldr	r1, [sp, #256]
	str	r1, [r0, #108]
	ldr	r1, [sp, #252]
	str	r1, [r0, #112]
	ldr	r1, [sp, #248]
	str	r1, [r0, #116]
	ldr	r1, [sp, #244]
	str	r1, [r0, #120]
	ldr	r1, [sp, #240]
	str	r1, [r0, #124]
	ldr	r1, [sp, #324]
	str	r1, [r0, #68]
	ldr	r1, [sp, #320]
	str	r1, [r0, #72]
	ldr	r1, [sp, #316]
	str	r1, [r0, #76]
	ldr	r1, [sp, #312]
	str	r1, [r0, #80]
	ldr	r1, [sp, #308]
	str	r1, [r0, #84]
	ldr	r1, [sp, #304]
	str	r1, [r0, #88]
	ldr	r1, [sp, #300]
	str	r1, [r0, #92]
	ldr	r1, [sp, #296]
	str	r1, [r0, #96]
	ldr	r1, [sp, #392]
	str	r1, [r0, #36]
	ldr	r1, [sp, #388]
	str	r1, [r0, #40]
	ldr	r1, [sp, #384]
	str	r1, [r0, #44]
	ldr	r1, [sp, #380]
	str	r1, [r0, #48]
	ldr	r1, [sp, #376]
	str	r1, [r0, #52]
	ldr	r1, [sp, #372]
	str	r1, [r0, #56]
	ldr	r1, [sp, #368]
	str	r1, [r0, #60]
	ldr	r1, [sp, #364]
	str	r1, [r0, #64]
	ldr	r1, [sp, #456]
	str	r1, [r0, #4]
	ldr	r1, [sp, #452]
	str	r1, [r0, #8]
	ldr	r1, [sp, #448]
	str	r1, [r0, #12]
	ldr	r1, [sp, #444]
	str	r1, [r0, #16]
	ldr	r1, [sp, #440]
	str	r1, [r0, #20]
	ldr	r1, [sp, #436]
	str	r1, [r0, #24]
	ldr	r1, [sp, #432]
	str	r1, [r0, #28]
	ldr	r1, [sp, #428]
	str	r1, [r0, #32]
	ldr	r0, [sp, #580]
	adds	r3, r4, r0
	mov	r0, r3
	adds	r0, #8
	ldr	r1, [sp, #496]
	str	r1, [r0, #120]
	ldr	r1, [sp, #492]
	str	r1, [r0, #124]
	ldr	r0, [sp, #524]
	str	r0, [r3, #100]
	ldr	r0, [sp, #520]
	str	r0, [r3, #104]
	ldr	r0, [sp, #516]
	str	r0, [r3, #108]
	ldr	r0, [sp, #512]
	str	r0, [r3, #112]
	ldr	r0, [sp, #508]
	str	r0, [r3, #116]
	ldr	r0, [sp, #504]
	str	r0, [r3, #120]
	ldr	r0, [sp, #500]
	str	r0, [r3, #124]
	ldr	r0, [sp, #572]
	str	r0, [r3, #68]
	ldr	r0, [sp, #568]
	str	r0, [r3, #72]
	ldr	r0, [sp, #564]
	str	r0, [r3, #76]
	ldr	r0, [sp, #560]
	str	r0, [r3, #80]
	ldr	r0, [sp, #556]
	str	r0, [r3, #84]
	ldr	r0, [sp, #552]
	str	r0, [r3, #88]
	ldr	r0, [sp, #548]
	str	r0, [r3, #92]
	ldr	r0, [sp, #544]
	str	r0, [r3, #96]
	ldr	r0, [sp, #640]
	str	r0, [r3, #36]
	ldr	r0, [sp, #636]
	str	r0, [r3, #40]
	ldr	r0, [sp, #632]
	str	r0, [r3, #44]
	ldr	r0, [sp, #628]
	str	r0, [r3, #48]
	ldr	r0, [sp, #624]
	str	r0, [r3, #52]
	ldr	r0, [sp, #620]
	str	r0, [r3, #56]
	ldr	r0, [sp, #616]
	str	r0, [r3, #60]
	ldr	r0, [sp, #612]
	str	r0, [r3, #64]
	ldr	r0, [sp, #664]
	str	r0, [r3, #32]
	ldr	r0, [sp, #672]
	str	r0, [r3, #28]
	ldr	r0, [sp, #680]
	str	r0, [r3, #24]
	ldr	r0, [sp, #688]
	str	r0, [r3, #20]
	ldr	r0, [sp, #696]
	str	r0, [r3, #16]
	ldr	r0, [sp, #704]
	str	r0, [r3, #12]
	ldr	r0, [sp, #712]
	str	r0, [r3, #8]
	ldr	r0, [sp, #812]
	adds	r0, r4, r0
	ldr	r1, [sp, #760]
	str	r1, [r0, #100]
	ldr	r1, [sp, #756]
	str	r1, [r0, #104]
	ldr	r1, [sp, #752]
	str	r1, [r0, #108]
	ldr	r1, [sp, #748]
	str	r1, [r0, #112]
	ldr	r1, [sp, #744]
	str	r1, [r0, #116]
	ldr	r1, [sp, #740]
	str	r1, [r0, #120]
	ldr	r1, [sp, #736]
	str	r1, [r0, #124]
	ldr	r1, [sp, #808]
	str	r1, [r0, #68]
	ldr	r1, [sp, #804]
	str	r1, [r0, #72]
	ldr	r1, [sp, #800]
	str	r1, [r0, #76]
	ldr	r1, [sp, #796]
	str	r1, [r0, #80]
	ldr	r1, [sp, #792]
	str	r1, [r0, #84]
	ldr	r1, [sp, #788]
	str	r1, [r0, #88]
	ldr	r1, [sp, #784]
	str	r1, [r0, #92]
	ldr	r1, [sp, #780]
	str	r1, [r0, #96]
	ldr	r1, [sp, #844]
	str	r1, [r0, #36]
	ldr	r1, [sp, #840]
	str	r1, [r0, #40]
	ldr	r1, [sp, #836]
	str	r1, [r0, #44]
	ldr	r1, [sp, #832]
	str	r1, [r0, #48]
	ldr	r1, [sp, #828]
	str	r1, [r0, #52]
	ldr	r1, [sp, #824]
	str	r1, [r0, #56]
	ldr	r1, [sp, #820]
	str	r1, [r0, #60]
	ldr	r1, [sp, #816]
	str	r1, [r0, #64]
	ldr	r1, [sp, #876]
	str	r1, [r0, #4]
	ldr	r1, [sp, #872]
	str	r1, [r0, #8]
	ldr	r1, [sp, #868]
	str	r1, [r0, #12]
	ldr	r1, [sp, #864]
	str	r1, [r0, #16]
	ldr	r1, [sp, #860]
	str	r1, [r0, #20]
	ldr	r1, [sp, #856]
	str	r1, [r0, #24]
	ldr	r1, [sp, #852]
	str	r1, [r0, #28]
	ldr	r1, [sp, #848]
	str	r1, [r0, #32]
	ldr	r0, [sp, #940]
	adds	r0, r4, r0
	ldr	r1, [sp, #904]
	str	r1, [r0, #100]
	ldr	r1, [sp, #900]
	str	r1, [r0, #104]
	ldr	r1, [sp, #896]
	str	r1, [r0, #108]
	ldr	r1, [sp, #892]
	str	r1, [r0, #112]
	ldr	r1, [sp, #888]
	str	r1, [r0, #116]
	ldr	r1, [sp, #884]
	str	r1, [r0, #120]
	ldr	r1, [sp, #880]
	str	r1, [r0, #124]
	ldr	r1, [sp, #936]
	str	r1, [r0, #68]
	ldr	r1, [sp, #932]
	str	r1, [r0, #72]
	ldr	r1, [sp, #928]
	str	r1, [r0, #76]
	ldr	r1, [sp, #924]
	str	r1, [r0, #80]
	ldr	r1, [sp, #920]
	str	r1, [r0, #84]
	ldr	r1, [sp, #916]
	str	r1, [r0, #88]
	ldr	r1, [sp, #912]
	str	r1, [r0, #92]
	ldr	r1, [sp, #908]
	str	r1, [r0, #96]
	ldr	r1, [sp, #972]
	str	r1, [r0, #36]
	ldr	r1, [sp, #968]
	str	r1, [r0, #40]
	ldr	r1, [sp, #964]
	str	r1, [r0, #44]
	ldr	r1, [sp, #960]
	str	r1, [r0, #48]
	ldr	r1, [sp, #956]
	str	r1, [r0, #52]
	ldr	r1, [sp, #952]
	str	r1, [r0, #56]
	ldr	r1, [sp, #948]
	str	r1, [r0, #60]
	ldr	r1, [sp, #944]
	str	r1, [r0, #64]
	ldr	r1, .LCPI20_15
	add	r1, sp
	ldr	r1, [r1]
	str	r1, [r0, #4]
	ldr	r1, [sp, #1000]
	str	r1, [r0, #8]
	ldr	r1, [sp, #996]
	str	r1, [r0, #12]
	ldr	r1, [sp, #992]
	str	r1, [r0, #16]
	ldr	r1, [sp, #988]
	str	r1, [r0, #20]
	ldr	r1, [sp, #984]
	str	r1, [r0, #24]
	ldr	r1, [sp, #980]
	str	r1, [r0, #28]
	ldr	r1, [sp, #976]
	str	r1, [r0, #32]
	mov	r1, r4
	adds	r1, #128
	ldr	r0, [sp, #292]
	str	r0, [r1, #100]
	ldr	r0, [sp, #288]
	str	r0, [r1, #104]
	ldr	r0, [sp, #284]
	str	r0, [r1, #108]
	ldr	r0, [sp, #280]
	str	r0, [r1, #112]
	ldr	r0, [sp, #276]
	str	r0, [r1, #116]
	ldr	r0, [sp, #272]
	str	r0, [r1, #120]
	ldr	r0, [sp, #268]
	str	r0, [r1, #124]
	ldr	r0, [sp, #356]
	str	r0, [r1, #68]
	ldr	r0, [sp, #352]
	str	r0, [r1, #72]
	ldr	r0, [sp, #348]
	str	r0, [r1, #76]
	ldr	r0, [sp, #344]
	str	r0, [r1, #80]
	ldr	r0, [sp, #340]
	str	r0, [r1, #84]
	ldr	r0, [sp, #336]
	str	r0, [r1, #88]
	ldr	r0, [sp, #332]
	str	r0, [r1, #92]
	ldr	r0, [sp, #328]
	str	r0, [r1, #96]
	ldr	r0, [sp, #424]
	str	r0, [r1, #36]
	ldr	r0, [sp, #420]
	str	r0, [r1, #40]
	ldr	r0, [sp, #416]
	str	r0, [r1, #44]
	ldr	r0, [sp, #412]
	str	r0, [r1, #48]
	ldr	r0, [sp, #408]
	str	r0, [r1, #52]
	ldr	r0, [sp, #404]
	str	r0, [r1, #56]
	ldr	r0, [sp, #400]
	str	r0, [r1, #60]
	ldr	r0, [sp, #396]
	str	r0, [r1, #64]
	ldr	r0, [sp, #488]
	str	r0, [r1, #4]
	ldr	r0, [sp, #484]
	str	r0, [r1, #8]
	ldr	r0, [sp, #480]
	str	r0, [r1, #12]
	ldr	r0, [sp, #476]
	str	r0, [r1, #16]
	ldr	r0, [sp, #472]
	str	r0, [r1, #20]
	ldr	r0, [sp, #468]
	str	r0, [r1, #24]
	ldr	r0, [sp, #464]
	str	r0, [r1, #28]
	ldr	r0, [sp, #460]
	str	r0, [r1, #32]
	ldr	r0, [sp, #360]
	adds	r1, r4, r0
	movs	r0, #64
	str	r0, [r1, #4]
	str	r2, [r1, #8]
	str	r2, [r1, #12]
	str	r2, [r1, #16]
	ldr	r5, .LCPI20_15
	add	r5, sp
	str	r3, [r5]
	str	r0, [r3, #4]
	mov	r5, r2
	ldr	r0, .LCPI20_12
	add	r0, sp
	ldr	r0, [r0]
	str	r0, [r1, #24]
	str	r2, [r1, #28]
	str	r2, [r1, #32]
	str	r2, [r1, #36]
	ldr	r0, [sp, #1004]
	ldr	r2, .LCPI20_16
	add	r2, sp
	str	r0, [r2]
	ldr	r0, [sp, #1008]
	ldr	r2, .LCPI20_17
	add	r2, sp
	str	r0, [r2]
	ldr	r0, [sp, #1016]
	ldr	r2, .LCPI20_18
	add	r2, sp
	str	r0, [r2]
	ldr	r0, .LCPI20_14
	add	r0, sp
	ldr	r0, [r0]
	ldr	r2, .LCPI20_19
	add	r2, sp
	str	r0, [r2]
	ldr	r0, .LCPI20_13
	add	r0, sp
	ldr	r0, [r0]
	ldr	r2, .LCPI20_20
	add	r2, sp
	str	r0, [r2]
	ldr	r0, .LCPI20_11
	add	r0, sp
	ldr	r0, [r0]
	ldr	r2, .LCPI20_21
	add	r2, sp
	str	r0, [r2]
	ldr	r0, [sp, #528]
	ldr	r2, .LCPI20_22
	add	r2, sp
	str	r0, [r2]
	ldr	r0, [sp, #532]
	ldr	r2, .LCPI20_23
	add	r2, sp
	str	r0, [r2]
	ldr	r0, [sp, #536]
	ldr	r2, .LCPI20_24
	add	r2, sp
	str	r0, [r2]
	ldr	r0, [sp, #540]
	ldr	r2, .LCPI20_25
	add	r2, sp
	str	r0, [r2]
	ldr	r0, [sp, #576]
	ldr	r2, .LCPI20_26
	add	r2, sp
	str	r0, [r2]
	ldr	r0, [sp, #584]
	ldr	r2, .LCPI20_27
	add	r2, sp
	str	r0, [r2]
	ldr	r0, [sp, #588]
	ldr	r2, .LCPI20_28
	add	r2, sp
	str	r0, [r2]
	ldr	r0, [sp, #592]
	ldr	r2, .LCPI20_29
	add	r2, sp
	str	r0, [r2]
	ldr	r0, [sp, #596]
	ldr	r2, .LCPI20_30
	add	r2, sp
	str	r0, [r2]
	ldr	r0, [sp, #600]
	ldr	r2, .LCPI20_31
	add	r2, sp
	str	r0, [r2]
	ldr	r0, [sp, #604]
	ldr	r2, .LCPI20_32
	add	r2, sp
	str	r0, [r2]
	ldr	r0, [sp, #608]
	ldr	r2, .LCPI20_33
	add	r2, sp
	str	r0, [r2]
	ldr	r0, [sp, #644]
	ldr	r2, .LCPI20_34
	add	r2, sp
	str	r0, [r2]
	ldr	r0, [sp, #648]
	ldr	r2, .LCPI20_35
	add	r2, sp
	str	r0, [r2]
	ldr	r0, [sp, #652]
	ldr	r2, .LCPI20_36
	add	r2, sp
	str	r0, [r2]
	ldr	r0, [sp, #656]
	ldr	r2, .LCPI20_37
	add	r2, sp
	str	r0, [r2]
	ldr	r0, [sp, #660]
	ldr	r2, .LCPI20_38
	add	r2, sp
	str	r0, [r2]
	ldr	r0, [sp, #668]
	ldr	r2, .LCPI20_39
	add	r2, sp
	str	r0, [r2]
	ldr	r0, [sp, #676]
	ldr	r2, .LCPI20_40
	add	r2, sp
	str	r0, [r2]
	ldr	r0, [sp, #684]
	ldr	r2, .LCPI20_41
	add	r2, sp
	str	r0, [r2]
	ldr	r0, [sp, #692]
	ldr	r2, .LCPI20_42
	add	r2, sp
	str	r0, [r2]
	ldr	r0, [sp, #700]
	ldr	r2, .LCPI20_43
	add	r2, sp
	str	r0, [r2]
	ldr	r0, [sp, #708]
	ldr	r2, .LCPI20_44
	add	r2, sp
	str	r0, [r2]
	ldr	r0, [sp, #716]
	ldr	r2, .LCPI20_45
	add	r2, sp
	str	r0, [r2]
	ldr	r0, [sp, #720]
	ldr	r2, .LCPI20_46
	add	r2, sp
	str	r0, [r2]
	ldr	r0, [sp, #724]
	ldr	r2, .LCPI20_47
	add	r2, sp
	str	r0, [r2]
	ldr	r0, [sp, #728]
	ldr	r2, .LCPI20_48
	add	r2, sp
	str	r0, [r2]
	ldr	r0, [sp, #732]
	ldr	r2, .LCPI20_49
	add	r2, sp
	str	r0, [r2]
	ldr	r0, [sp, #764]
	ldr	r2, .LCPI20_50
	add	r2, sp
	str	r0, [r2]
	ldr	r0, [sp, #768]
	ldr	r2, .LCPI20_51
	add	r2, sp
	str	r0, [r2]
	ldr	r0, [sp, #772]
	ldr	r2, .LCPI20_52
	add	r2, sp
	str	r0, [r2]
	ldr	r0, [sp, #776]
	ldr	r2, .LCPI20_53
	add	r2, sp
	str	r0, [r2]
	str	r1, [sp, #1016]
	adds	r1, #24
	str	r1, [sp, #1008]
	ldr	r6, [sp, #1020]
.LBB20_10:
	adds	r2, r5, #1
	ldr	r0, .LCPI20_15
	add	r0, sp
	ldr	r0, [r0]
	str	r2, [r0]
	cmp	r5, #64
	beq	.LBB20_18
	ldr	r0, [r4]
	ldr	r1, [sp, #1016]
	str	r5, [sp]
	ldr	r3, .LCPI20_14
	add	r3, sp
	str	r2, [r3]
	str	r2, [r1]
	movs	r1, #65
	lsls	r1, r1, #3
	ldr	r2, [r4, r1]
	adds	r1, r4, r1
	ldr	r1, [r1, #4]
	ldr	r3, [r4, #4]
	ldr	r5, .LCPI20_54
	add	r5, sp
	str	r1, [r5]
	ldr	r5, [sp]
	ldr	r1, .LCPI20_55
	add	r1, sp
	str	r2, [r1]
	ldr	r1, .LCPI20_56
	add	r1, sp
	str	r3, [r1]
	ldr	r1, .LCPI20_57
	add	r1, sp
	str	r0, [r1]
	str	r5, [r6]
	cmp	r5, #9
	ldr	r0, .LCPI20_12
	add	r0, sp
	ldr	r0, [r0]
	bgt	.LBB20_13
	movs	r0, #2
.LBB20_13:
	ldr	r1, .LCPI20_11
	add	r1, sp
	str	r4, [r1]
	str	r0, [r6, #28]
	ldr	r0, .LCPI20_13
	add	r0, sp
	str	r5, [r0]
	cmp	r5, #9
	ldr	r0, .LCPI20_0
	ldr	r5, .LCPI20_10
	add	r5, sp
	ldr	r5, [r5]
	bgt	.LBB20_15
	ldr	r0, .LCPI20_1
.LBB20_15:
	str	r0, [r6, #24]
	movs	r4, #0
	ldr	r0, .LCPI20_2
	str	r0, [r6, #56]
	ldr	r0, .LCPI20_12
	add	r0, sp
	ldr	r0, [r0]
	str	r0, [r6, #60]
	ldr	r0, .LCPI20_3
	str	r0, [r6, #64]
	str	r4, [r6, #68]
	str	r4, [r6, #72]
	ldr	r1, .LCPI20_58
	add	r1, sp
	mov	r0, r5
	bl	_ZN4core3fmt9Formatter9write_fmt17h9c22fb615787d62aE
	cmp	r0, #0
	bne	.LBB20_19
	str	r4, [r6, #48]
	ldr	r0, [sp, #1012]
	str	r0, [r6, #36]
	ldr	r1, .LCPI20_4
	str	r1, [r6, #32]
	str	r0, [r6, #44]
	ldr	r0, .LCPI20_58
	add	r0, sp
	str	r0, [r6, #40]
	ldr	r0, .LCPI20_5
	str	r0, [r6, #76]
	ldr	r0, .LCPI20_59
	add	r0, sp
	str	r0, [r6, #72]
	ldr	r0, .LCPI20_6
	str	r0, [r6, #68]
	ldr	r0, .LCPI20_60
	add	r0, sp
	str	r0, [r6, #64]
	ldr	r0, .LCPI20_7
	str	r0, [r6, #60]
	ldr	r0, .LCPI20_9
	add	r0, sp
	str	r0, [r6, #56]
	mov	r3, r6
	adds	r3, #8
	ldm	r3, {r0, r1, r2, r3}
	str	r0, [r6, #88]
	str	r1, [r6, #92]
	str	r3, [r6, #84]
	str	r2, [r6, #80]
	ldr	r1, .LCPI20_61
	add	r1, sp
	mov	r0, r5
	bl	_ZN4core3fmt9Formatter9write_fmt17h9c22fb615787d62aE
	cmp	r0, #0
	bne	.LBB20_19
	ldr	r0, .LCPI20_13
	add	r0, sp
	ldr	r0, [r0]
	adds	r0, r0, #2
	ldr	r1, [sp, #1008]
	str	r0, [r1]
	ldr	r4, .LCPI20_11
	add	r4, sp
	ldr	r4, [r4]
	adds	r4, #8
	ldr	r5, .LCPI20_14
	add	r5, sp
	ldr	r5, [r5]
	cmp	r5, #64
	bne	.LBB20_10
.LBB20_18:
	movs	r0, #0
	ldr	r1, .LCPI20_49
	add	r1, sp
	str	r0, [r1]
	movs	r1, #1
	ldr	r2, .LCPI20_52
	add	r2, sp
	str	r1, [r2]
	ldr	r1, .LCPI20_2
	ldr	r2, .LCPI20_53
	add	r2, sp
	str	r1, [r2]
	ldr	r1, .LCPI20_50
	add	r1, sp
	str	r0, [r1]
	ldr	r0, .LCPI20_3
	ldr	r1, .LCPI20_51
	add	r1, sp
	str	r0, [r1]
	add	r1, sp, #1020
	adds	r1, #28
	ldr	r0, .LCPI20_10
	add	r0, sp
	ldr	r0, [r0]
	bl	_ZN4core3fmt9Formatter9write_fmt17h9c22fb615787d62aE
	b	.LBB20_20
.LBB20_19:
	movs	r0, #1
.LBB20_20:
	subs	r4, r7, #7
	subs	r4, #5
	mov	sp, r4
	pop	{r4, r5, r6, r7, pc}
	.p2align	2
.LCPI20_0:
	.long	.L__unnamed_5
.LCPI20_1:
	.long	.L__unnamed_6
.LCPI20_2:
	.long	.L__unnamed_7
.LCPI20_3:
	.long	.L__unnamed_8
.LCPI20_4:
	.long	.L__unnamed_9
.LCPI20_5:
	.long	_ZN4core3fmt3num53_$LT$impl$u20$core..fmt..Display$u20$for$u20$u128$GT$3fmt17h0c614259f36813ebE
.LCPI20_6:
	.long	_ZN44_$LT$$RF$T$u20$as$u20$core..fmt..Display$GT$3fmt17h850a63915c02ea75E
.LCPI20_7:
	.long	_ZN4core3fmt3num3imp52_$LT$impl$u20$core..fmt..Display$u20$for$u20$i32$GT$3fmt17h5e939019c27c2a02E
.LCPI20_9:
	.long	2120
.LCPI20_10:
	.long	1028
.LCPI20_11:
	.long	1040
.LCPI20_12:
	.long	1044
.LCPI20_13:
	.long	1036
.LCPI20_14:
	.long	1032
.LCPI20_15:
	.long	1024
.LCPI20_16:
	.long	1952
.LCPI20_17:
	.long	1824
.LCPI20_18:
	.long	1696
.LCPI20_19:
	.long	1432
.LCPI20_20:
	.long	1304
.LCPI20_21:
	.long	1176
.LCPI20_22:
	.long	1172
.LCPI20_23:
	.long	1168
.LCPI20_24:
	.long	1164
.LCPI20_25:
	.long	1160
.LCPI20_26:
	.long	1156
.LCPI20_27:
	.long	1152
.LCPI20_28:
	.long	1148
.LCPI20_29:
	.long	1144
.LCPI20_30:
	.long	1140
.LCPI20_31:
	.long	1136
.LCPI20_32:
	.long	1132
.LCPI20_33:
	.long	1128
.LCPI20_34:
	.long	1124
.LCPI20_35:
	.long	1120
.LCPI20_36:
	.long	1116
.LCPI20_37:
	.long	1112
.LCPI20_38:
	.long	1108
.LCPI20_39:
	.long	1104
.LCPI20_40:
	.long	1100
.LCPI20_41:
	.long	1096
.LCPI20_42:
	.long	1092
.LCPI20_43:
	.long	1088
.LCPI20_44:
	.long	1084
.LCPI20_45:
	.long	1080
.LCPI20_46:
	.long	1076
.LCPI20_47:
	.long	1072
.LCPI20_48:
	.long	1068
.LCPI20_49:
	.long	1064
.LCPI20_50:
	.long	1060
.LCPI20_51:
	.long	1056
.LCPI20_52:
	.long	1052
.LCPI20_53:
	.long	1048
.LCPI20_54:
	.long	2140
.LCPI20_55:
	.long	2136
.LCPI20_56:
	.long	2132
.LCPI20_57:
	.long	2128
.LCPI20_58:
	.long	2176
.LCPI20_59:
	.long	2200
.LCPI20_60:
	.long	2144
.LCPI20_61:
	.long	2152
.Lfunc_end20:
	.size	_ZN62_$LT$lib..newspeed..DisplayArr$u20$as$u20$core..fmt..Debug$GT$3fmt17h3bfa6ceda0b74198E, .Lfunc_end20-_ZN62_$LT$lib..newspeed..DisplayArr$u20$as$u20$core..fmt..Debug$GT$3fmt17h3bfa6ceda0b74198E
	.cantunwind
	.fnend

	.type	.L__unnamed_8,%object
	.section	.rodata..L__unnamed_8,"a",%progbits
	.p2align	2, 0x0
.L__unnamed_8:
	.size	.L__unnamed_8, 0

	.type	.L__unnamed_1,%object
	.section	.rodata..L__unnamed_1,"a",%progbits
.L__unnamed_1:
	.ascii	"row"
	.size	.L__unnamed_1, 3

	.type	.L__unnamed_2,%object
	.section	.rodata..L__unnamed_2,"a",%progbits
.L__unnamed_2:
	.ascii	"column"
	.size	.L__unnamed_2, 6

	.type	.L__unnamed_10,%object
	.section	.rodata.cst8,"aM",%progbits,8
.L__unnamed_10:
	.ascii	"Invalid "
	.size	.L__unnamed_10, 8

	.type	.L__unnamed_11,%object
	.section	.rodata..L__unnamed_11,"a",%progbits
.L__unnamed_11:
	.ascii	" index provided: expected 0..="
	.size	.L__unnamed_11, 30

	.type	.L__unnamed_12,%object
	.section	.rodata.cst8,"aM",%progbits,8
.L__unnamed_12:
	.ascii	", found "
	.size	.L__unnamed_12, 8

	.type	.L__unnamed_3,%object
	.section	.rodata..L__unnamed_3,"a",%progbits
	.p2align	2, 0x0
.L__unnamed_3:
	.long	.L__unnamed_10
	.asciz	"\b\000\000"
	.long	.L__unnamed_11
	.asciz	"\036\000\000"
	.long	.L__unnamed_12
	.asciz	"\b\000\000"
	.size	.L__unnamed_3, 24

	.type	.L__unnamed_4,%object
	.section	.rodata..L__unnamed_4,"a",%progbits
	.p2align	2, 0x0
.L__unnamed_4:
	.long	.L__unnamed_8
	.zero	4
	.size	.L__unnamed_4, 8

	.type	.L__unnamed_13,%object
	.section	.rodata..L__unnamed_13,"a",%progbits
.L__unnamed_13:
	.byte	10
	.size	.L__unnamed_13, 1

	.type	.L__unnamed_7,%object
	.section	.rodata..L__unnamed_7,"a",%progbits
	.p2align	2, 0x0
.L__unnamed_7:
	.long	.L__unnamed_13
	.asciz	"\001\000\000"
	.size	.L__unnamed_7, 8

	.type	.L__unnamed_5,%object
	.section	.rodata..L__unnamed_5,"a",%progbits
.L__unnamed_5:
	.byte	32
	.size	.L__unnamed_5, 1

	.type	.L__unnamed_6,%object
	.section	.rodata..L__unnamed_6,"a",%progbits
.L__unnamed_6:
	.zero	2,32
	.size	.L__unnamed_6, 2

	.type	.L__unnamed_14,%object
	.section	.rodata..L__unnamed_14,"a",%progbits
.L__unnamed_14:
	.ascii	": "
	.size	.L__unnamed_14, 2

	.type	.L__unnamed_9,%object
	.section	.rodata..L__unnamed_9,"a",%progbits
	.p2align	2, 0x0
.L__unnamed_9:
	.long	.L__unnamed_8
	.zero	4
	.long	.L__unnamed_14
	.asciz	"\002\000\000"
	.long	.L__unnamed_8
	.zero	4
	.size	.L__unnamed_9, 24

	.globl	_ZN3lib8newspeed10DisplayArr5splat17h2b2a3bba13bdc058E
	.type	_ZN3lib8newspeed10DisplayArr5splat17h2b2a3bba13bdc058E,%function
.set _ZN3lib8newspeed10DisplayArr5splat17h2b2a3bba13bdc058E, _ZN3lib8newspeed10DisplayArr5splat10simd_splat17h4e4eed90a6b39476E
	.ident	"rustc version 1.75.0-nightly (a2f5f9691 2023-11-02)"
	.section	".note.GNU-stack","",%progbits
	.eabi_attribute	30, 3
